
 Start         Length     Name                   Class
 0001:00401000 00028448H .text                   CODE
 0002:0042A000 00000194H .itext                  ICODE
 0003:0042B000 000001D8H .data                   DATA
 0004:0042C000 000001A8H .bss                    BSS
 0005:00000000 00000000H .tls                    TLS
 0006:00400000 00000000H .pdata                  PDATA


Detailed map of segments

 0001:00000000 00000288 C=CODE     S=.text    G=(none)   M=System   ACBP=A9
 0001:00000288 000007CC C=CODE     S=.text    G=(none)   M=SysInit  ACBP=A9
 0001:00000A54 000000F8 C=CODE     S=.text    G=(none)   M=Winapi.Windows ACBP=A9
 0001:00000B4C 00000008 C=CODE     S=.text    G=(none)   M=System.Internal.ExcUtils ACBP=A9
 0001:00000B54 000000F8 C=CODE     S=.text    G=(none)   M=System.SysUtils ACBP=A9
 0001:00000C4C 00000008 C=CODE     S=.text    G=(none)   M=System.VarUtils ACBP=A9
 0001:00000C54 00000138 C=CODE     S=.text    G=(none)   M=System.Variants ACBP=A9
 0001:00000D8C 00000008 C=CODE     S=.text    G=(none)   M=System.TypInfo ACBP=A9
 0001:00000D94 00000128 C=CODE     S=.text    G=(none)   M=System.Classes ACBP=A9
 0001:00000EBC 00002BC8 C=CODE     S=.text    G=(none)   M=SQLite3  ACBP=A9
 0001:00003A84 00000008 C=CODE     S=.text    G=(none)   M=System.Math ACBP=A9
 0001:00003A8C 00000008 C=CODE     S=.text    G=(none)   M=System.TimeSpan ACBP=A9
 0001:00003A94 00000008 C=CODE     S=.text    G=(none)   M=System.SyncObjs ACBP=A9
 0001:00003A9C 00000008 C=CODE     S=.text    G=(none)   M=System.StrUtils ACBP=A9
 0001:00003AA4 00000008 C=CODE     S=.text    G=(none)   M=System.Generics.Defaults ACBP=A9
 0001:00003AAC 00000008 C=CODE     S=.text    G=(none)   M=System.Generics.Collections ACBP=A9
 0001:00003AB4 00000008 C=CODE     S=.text    G=(none)   M=System.DateUtils ACBP=A9
 0001:00003ABC 00000008 C=CODE     S=.text    G=(none)   M=Data.SqlTimSt ACBP=A9
 0001:00003AC4 00000008 C=CODE     S=.text    G=(none)   M=Data.FmtBcd ACBP=A9
 0001:00003ACC 00000388 C=CODE     S=.text    G=(none)   M=Data.DB  ACBP=A9
 0001:00003E54 00000008 C=CODE     S=.text    G=(none)   M=System.Rtti ACBP=A9
 0001:00003E5C 0001EF44 C=CODE     S=.text    G=(none)   M=SQLiteTable3 ACBP=A9
 0001:00022DA0 00000010 C=CODE     S=.text    G=(none)   M=System.Win.ComObj ACBP=A9
 0001:00022DB0 00000008 C=CODE     S=.text    G=(none)   M=Datasnap.DSIntf ACBP=A9
 0001:00022DB8 00000008 C=CODE     S=.text    G=(none)   M=Datasnap.Provider ACBP=A9
 0001:00022DC0 000003A0 C=CODE     S=.text    G=(none)   M=Datasnap.DBClient ACBP=A9
 0001:00023160 00004E28 C=CODE     S=.text    G=(none)   M=SQLite3Dataset ACBP=A9
 0001:00027F88 00000058 C=CODE     S=.text    G=(none)   M=SQLite3Register ACBP=A9
 0001:00027FE0 00000468 C=CODE     S=.text    G=(none)   M=.pck_SQLite3 ACBP=A9
 0002:00000000 00000008 C=ICODE    S=.itext   G=(none)   M=System   ACBP=A9
 0002:00000008 00000008 C=ICODE    S=.itext   G=(none)   M=SysInit  ACBP=A9
 0002:00000010 00000018 C=ICODE    S=.itext   G=(none)   M=Winapi.Windows ACBP=A9
 0002:00000028 00000008 C=ICODE    S=.itext   G=(none)   M=System.Internal.ExcUtils ACBP=A9
 0002:00000030 00000028 C=ICODE    S=.itext   G=(none)   M=System.SysUtils ACBP=A9
 0002:00000058 00000008 C=ICODE    S=.itext   G=(none)   M=System.VarUtils ACBP=A9
 0002:00000060 00000008 C=ICODE    S=.itext   G=(none)   M=System.Variants ACBP=A9
 0002:00000068 00000008 C=ICODE    S=.itext   G=(none)   M=System.TypInfo ACBP=A9
 0002:00000070 00000028 C=ICODE    S=.itext   G=(none)   M=System.Classes ACBP=A9
 0002:00000098 0000003C C=ICODE    S=.itext   G=(none)   M=SQLite3  ACBP=A9
 0002:000000D4 00000008 C=ICODE    S=.itext   G=(none)   M=System.Math ACBP=A9
 0002:000000DC 00000008 C=ICODE    S=.itext   G=(none)   M=System.TimeSpan ACBP=A9
 0002:000000E4 00000008 C=ICODE    S=.itext   G=(none)   M=System.SyncObjs ACBP=A9
 0002:000000EC 00000008 C=ICODE    S=.itext   G=(none)   M=System.DateUtils ACBP=A9
 0002:000000F4 00000008 C=ICODE    S=.itext   G=(none)   M=Data.SqlTimSt ACBP=A9
 0002:000000FC 00000008 C=ICODE    S=.itext   G=(none)   M=Data.FmtBcd ACBP=A9
 0002:00000104 00000008 C=ICODE    S=.itext   G=(none)   M=Data.DB  ACBP=A9
 0002:0000010C 00000008 C=ICODE    S=.itext   G=(none)   M=System.Rtti ACBP=A9
 0002:00000114 00000040 C=ICODE    S=.itext   G=(none)   M=SQLiteTable3 ACBP=A9
 0002:00000154 00000010 C=ICODE    S=.itext   G=(none)   M=System.Win.ComObj ACBP=A9
 0002:00000164 00000008 C=ICODE    S=.itext   G=(none)   M=Datasnap.DSIntf ACBP=A9
 0002:0000016C 00000008 C=ICODE    S=.itext   G=(none)   M=Datasnap.Provider ACBP=A9
 0002:00000174 00000008 C=ICODE    S=.itext   G=(none)   M=Datasnap.DBClient ACBP=A9
 0002:0000017C 00000008 C=ICODE    S=.itext   G=(none)   M=SQLite3Dataset ACBP=A9
 0002:00000184 00000008 C=ICODE    S=.itext   G=(none)   M=SQLite3Register ACBP=A9
 0002:0000018C 00000008 C=ICODE    S=.itext   G=(none)   M=.pck_SQLite3 ACBP=A9
 0003:00000000 00000088 C=DATA     S=.data    G=DGROUP   M=SysInit  ACBP=A9
 0003:00000088 0000000C C=DATA     S=.data    G=DGROUP   M=Winapi.Windows ACBP=A9
 0003:00000094 00000004 C=DATA     S=.data    G=DGROUP   M=SQLite3  ACBP=A9
 0003:00000098 0000004C C=DATA     S=.data    G=DGROUP   M=SQLiteTable3 ACBP=A9
 0004:00000000 0000001C C=BSS      S=.bss     G=DGROUP   M=SysInit  ACBP=A9
 0004:0000001C 00000008 C=BSS      S=.bss     G=DGROUP   M=Winapi.Windows ACBP=A9
 0004:00000024 00000174 C=BSS      S=.bss     G=DGROUP   M=SQLite3  ACBP=A9
 0004:00000198 00000008 C=BSS      S=.bss     G=DGROUP   M=SQLiteTable3 ACBP=A9
 0004:000001A0 00000004 C=BSS      S=.bss     G=DGROUP   M=SQLite3Dataset ACBP=A9
 0004:000001A4 00000004 C=BSS      S=.bss     G=DGROUP   M=SQLite3Register ACBP=A9


  Address             Publics by Name

 0002:0000018C       .pck_SQLite3..pck_SQLite3
 0001:00028428       .pck_SQLite3.@GetPackageInfoTable
 0001:00028430       .pck_SQLite3.@PackageLoad
 0001:0002843C       .pck_SQLite3.@PackageUnload
 0002:00000104       Data.DB.Data.DB
 0001:00003E4C       Data.DB.Finalization
 0001:00003C4C       Data.DB.TDataSet.ActivateBuffers
 0001:00003CAC       Data.DB.TDataSet.Append
 0001:00003B74       Data.DB.TDataSet.BindFields
 0001:00003C94       Data.DB.TDataSet.BlockReadNext
 0001:00003C74       Data.DB.TDataSet.CalculateFields
 0001:00003B0C       Data.DB.TDataSet.CheckActive
 0001:00003B6C       Data.DB.TDataSet.CheckFieldCompatibility
 0001:00003B04       Data.DB.TDataSet.CheckInactive
 0001:00003C44       Data.DB.TDataSet.ClearBuffers
 0001:00003BC4       Data.DB.TDataSet.CloseBlob
 0001:00003B5C       Data.DB.TDataSet.CreateFields
 0001:00003AFC       Data.DB.TDataSet.CreateNestedDataSet
 0001:00003CB4       Data.DB.TDataSet.Delete
 0001:00003B64       Data.DB.TDataSet.DestroyFields
 0001:00003C0C       Data.DB.TDataSet.DisableControls
 0001:00003CFC       Data.DB.TDataSet.DoAfterCancel
 0001:00003D04       Data.DB.TDataSet.DoAfterClose
 0001:00003D0C       Data.DB.TDataSet.DoAfterDelete
 0001:00003D14       Data.DB.TDataSet.DoAfterEdit
 0001:00003D1C       Data.DB.TDataSet.DoAfterInsert
 0001:00003D24       Data.DB.TDataSet.DoAfterOpen
 0001:00003D2C       Data.DB.TDataSet.DoAfterPost
 0001:00003D34       Data.DB.TDataSet.DoAfterRefresh
 0001:00003D3C       Data.DB.TDataSet.DoAfterScroll
 0001:00003D44       Data.DB.TDataSet.DoBeforeCancel
 0001:00003D4C       Data.DB.TDataSet.DoBeforeClose
 0001:00003D54       Data.DB.TDataSet.DoBeforeDelete
 0001:00003D5C       Data.DB.TDataSet.DoBeforeEdit
 0001:00003D64       Data.DB.TDataSet.DoBeforeOpen
 0001:00003D6C       Data.DB.TDataSet.DoBeforePost
 0001:00003D74       Data.DB.TDataSet.DoBeforeRefresh
 0001:00003D7C       Data.DB.TDataSet.DoBeforeScroll
 0001:00003D84       Data.DB.TDataSet.DoOnCalcFields
 0001:00003CA4       Data.DB.TDataSet.Edit
 0001:00003C14       Data.DB.TDataSet.EnableControls
 0001:00003B9C       Data.DB.TDataSet.FieldByName
 0001:00003BA4       Data.DB.TDataSet.FindField
 0001:00003C7C       Data.DB.TDataSet.First
 0001:00003CCC       Data.DB.TDataSet.FreeBookmark
 0001:00003B7C       Data.DB.TDataSet.FreeFieldBuffers
 0001:00003B14       Data.DB.TDataSet.GetActive
 0001:00003BDC       Data.DB.TDataSet.GetAggFieldsClass
 0001:00003CEC       Data.DB.TDataSet.GetAggRecordCount
 0001:00003B84       Data.DB.TDataSet.GetBlobFieldData
 0001:00003CC4       Data.DB.TDataSet.GetBookmark
 0001:00003CD4       Data.DB.TDataSet.GetBookmarkStr
 0001:00003C6C       Data.DB.TDataSet.GetCalcFields
 0001:00003C04       Data.DB.TDataSet.GetCheckConstraintsClass
 0001:00003B24       Data.DB.TDataSet.GetDetailDataSets
 0001:00003B2C       Data.DB.TDataSet.GetDetailLinkFields
 0001:00003B44       Data.DB.TDataSet.GetFieldClass
 0001:00003B4C       Data.DB.TDataSet.GetFieldClass
 0001:00003B8C       Data.DB.TDataSet.GetFieldData
 0001:00003BFC       Data.DB.TDataSet.GetFieldDefListClass
 0001:00003BEC       Data.DB.TDataSet.GetFieldDefsClass
 0001:00003B54       Data.DB.TDataSet.GetFieldFullName
 0001:00003BE4       Data.DB.TDataSet.GetFieldListClass
 0001:00003BB4       Data.DB.TDataSet.GetFieldNames
 0001:00003BAC       Data.DB.TDataSet.GetFieldNames
 0001:00003BD4       Data.DB.TDataSet.GetFieldsClass
 0001:00003BF4       Data.DB.TDataSet.GetIndexDefsClass
 0001:00003B34       Data.DB.TDataSet.GetLookupListClass
 0001:00003C2C       Data.DB.TDataSet.GetNextRecord
 0001:00003C5C       Data.DB.TDataSet.GetNextRecords
 0001:00003BCC       Data.DB.TDataSet.GetParamsClass
 0001:00003C34       Data.DB.TDataSet.GetPriorRecord
 0001:00003C64       Data.DB.TDataSet.GetPriorRecords
 0001:00003CE4       Data.DB.TDataSet.GotoBookmark
 0001:00003B3C       Data.DB.TDataSet.InitFieldDefs
 0001:00003CF4       Data.DB.TDataSet.IsSequenced
 0001:00003C84       Data.DB.TDataSet.MoveBy
 0001:00003C8C       Data.DB.TDataSet.Next
 0001:00003D8C       Data.DB.TDataSet.PSEndTransaction
 0001:00003D94       Data.DB.TDataSet.PSExecute
 0001:00003D9C       Data.DB.TDataSet.PSExecuteStatement
 0001:00003DA4       Data.DB.TDataSet.PSExecuteStatement
 0001:00003DAC       Data.DB.TDataSet.PSGetAttributes
 0001:00003DB4       Data.DB.TDataSet.PSGetCommandTextW
 0001:00003DBC       Data.DB.TDataSet.PSGetDefaultOrder
 0001:00003DC4       Data.DB.TDataSet.PSGetKeyFields
 0001:00003DCC       Data.DB.TDataSet.PSGetKeyFieldsW
 0001:00003DD4       Data.DB.TDataSet.PSGetParams
 0001:00003DDC       Data.DB.TDataSet.PSGetQuoteChar
 0001:00003DE4       Data.DB.TDataSet.PSGetQuoteCharW
 0001:00003DEC       Data.DB.TDataSet.PSGetTableName
 0001:00003DF4       Data.DB.TDataSet.PSGetTableNameW
 0001:00003DFC       Data.DB.TDataSet.PSGetUpdateException
 0001:00003E04       Data.DB.TDataSet.PSInTransaction
 0001:00003E0C       Data.DB.TDataSet.PSIsSQLBased
 0001:00003E14       Data.DB.TDataSet.PSIsSQLSupported
 0001:00003E1C       Data.DB.TDataSet.PSReset
 0001:00003E24       Data.DB.TDataSet.PSSetCommandText
 0001:00003E2C       Data.DB.TDataSet.PSSetCommandText
 0001:00003E34       Data.DB.TDataSet.PSSetParams
 0001:00003E3C       Data.DB.TDataSet.PSStartTransaction
 0001:00003E44       Data.DB.TDataSet.PSUpdateRecord
 0001:00003C3C       Data.DB.TDataSet.Resync
 0001:00003B1C       Data.DB.TDataSet.SetActive
 0001:00003C9C       Data.DB.TDataSet.SetBlockReadSize
 0001:00003CDC       Data.DB.TDataSet.SetBookmarkStr
 0001:00003C1C       Data.DB.TDataSet.SetBufListSize
 0001:00003C24       Data.DB.TDataSet.SetCurrentRecord
 0001:00003B94       Data.DB.TDataSet.SetFieldData
 0001:00003AF4       Data.DB.TDataSet.SetName
 0001:00003BBC       Data.DB.TDataSet.SetStateFieldValue
 0001:00003CBC       Data.DB.TDataSet.Translate
 0001:00003C54       Data.DB.TDataSet.UpdateCursorPos
 0001:00003ADC       Data.DB.TField.GetOldValue
 0001:00003ACC       Data.DB.TFieldDefs.Add
 0001:00003AD4       Data.DB.TFields.GetField
 0001:00003AEC       Data.DB.TParam.GetAsVariant
 0001:00003AE4       Data.DB.TParams.GetItem
 0002:000000FC       Data.FmtBcd.Data.FmtBcd
 0001:00003AC4       Data.FmtBcd.Finalization
 0002:000000F4       Data.SqlTimSt.Data.SqlTimSt
 0001:00003ABC       Data.SqlTimSt.Finalization
 0002:00000174       Datasnap.DBClient.Datasnap.DBClient
 0001:00023158       Datasnap.DBClient.Finalization
 0001:00022E48       Datasnap.DBClient.TCustomClientDataSet.AddDataPacket
 0001:00022EE8       Datasnap.DBClient.TCustomClientDataSet.AllocRecordBuffer
 0001:00022EA8       Datasnap.DBClient.TCustomClientDataSet.ApplyUpdates
 0001:00023020       Datasnap.DBClient.TCustomClientDataSet.BookmarkValid
 0001:00022FD8       Datasnap.DBClient.TCustomClientDataSet.Cancel
 0001:00023028       Datasnap.DBClient.TCustomClientDataSet.CancelUpdates
 0001:00023048       Datasnap.DBClient.TCustomClientDataSet.CheckDetailRecords
 0001:00022E40       Datasnap.DBClient.TCustomClientDataSet.CheckProviderEOF
 0001:00022F00       Datasnap.DBClient.TCustomClientDataSet.ClearCalcFields
 0001:00022EB8       Datasnap.DBClient.TCustomClientDataSet.CloneCursor
 0001:00022DF8       Datasnap.DBClient.TCustomClientDataSet.CloseCursor
 0001:00023018       Datasnap.DBClient.TCustomClientDataSet.CompareBookmarks
 0001:00022DC0       Datasnap.DBClient.TCustomClientDataSet.Create
 0001:00022F78       Datasnap.DBClient.TCustomClientDataSet.CreateBlobStream
 0001:00022EC0       Datasnap.DBClient.TCustomClientDataSet.CreateDataSet
 0001:00022F88       Datasnap.DBClient.TCustomClientDataSet.DataConvert
 0001:00022E88       Datasnap.DBClient.TCustomClientDataSet.DataEvent
 0001:00022EA0       Datasnap.DBClient.TCustomClientDataSet.DataRequest
 0001:00022E00       Datasnap.DBClient.TCustomClientDataSet.DefChanged
 0001:00023070       Datasnap.DBClient.TCustomClientDataSet.DefineProperties
 0001:00022DC8       Datasnap.DBClient.TCustomClientDataSet.Destroy
 0001:000230A8       Datasnap.DBClient.TCustomClientDataSet.DestroyLookupCursor
 0001:000230D8       Datasnap.DBClient.TCustomClientDataSet.DoAfterApplyUpdates
 0001:00023120       Datasnap.DBClient.TCustomClientDataSet.DoAfterExecute
 0001:00022DE8       Datasnap.DBClient.TCustomClientDataSet.DoAfterGetParams
 0001:000230F8       Datasnap.DBClient.TCustomClientDataSet.DoAfterGetRecords
 0001:00023108       Datasnap.DBClient.TCustomClientDataSet.DoAfterRowRequest
 0001:000230E8       Datasnap.DBClient.TCustomClientDataSet.DoApplyUpdates
 0001:000230E0       Datasnap.DBClient.TCustomClientDataSet.DoBeforeApplyUpdates
 0001:00023128       Datasnap.DBClient.TCustomClientDataSet.DoBeforeExecute
 0001:00022DF0       Datasnap.DBClient.TCustomClientDataSet.DoBeforeGetParams
 0001:000230F0       Datasnap.DBClient.TCustomClientDataSet.DoBeforeGetRecords
 0001:00022FC0       Datasnap.DBClient.TCustomClientDataSet.DoBeforeInsert
 0001:00023110       Datasnap.DBClient.TCustomClientDataSet.DoBeforeRowRequest
 0001:00023130       Datasnap.DBClient.TCustomClientDataSet.DoExecute
 0001:00023100       Datasnap.DBClient.TCustomClientDataSet.DoGetRecords
 0001:00023068       Datasnap.DBClient.TCustomClientDataSet.DoOnNewRecord
 0001:00023118       Datasnap.DBClient.TCustomClientDataSet.DoRowRequest
 0001:00022EC8       Datasnap.DBClient.TCustomClientDataSet.EmptyDataSet
 0001:00022E90       Datasnap.DBClient.TCustomClientDataSet.Execute
 0001:00022E98       Datasnap.DBClient.TCustomClientDataSet.ExecuteCommand
 0001:00022E38       Datasnap.DBClient.TCustomClientDataSet.FetchMoreData
 0001:00023040       Datasnap.DBClient.TCustomClientDataSet.FindKey
 0001:000230A0       Datasnap.DBClient.TCustomClientDataSet.FindRecord
 0001:00022EF0       Datasnap.DBClient.TCustomClientDataSet.FreeRecordBuffer
 0001:000230C8       Datasnap.DBClient.TCustomClientDataSet.GetAggregateValue
 0001:00022E58       Datasnap.DBClient.TCustomClientDataSet.GetAppServer
 0001:00023008       Datasnap.DBClient.TCustomClientDataSet.GetBookmarkData
 0001:00022FF8       Datasnap.DBClient.TCustomClientDataSet.GetBookmarkFlag
 0001:00022EE0       Datasnap.DBClient.TCustomClientDataSet.GetCanModify
 0001:00022F40       Datasnap.DBClient.TCustomClientDataSet.GetChangeCount
 0001:00022F48       Datasnap.DBClient.TCustomClientDataSet.GetCommandStates
 0001:00022F18       Datasnap.DBClient.TCustomClientDataSet.GetCurrentRecord
 0001:00023060       Datasnap.DBClient.TCustomClientDataSet.GetDataSource
 0001:00022F58       Datasnap.DBClient.TCustomClientDataSet.GetFieldData
 0001:00022F60       Datasnap.DBClient.TCustomClientDataSet.GetFieldData
 0001:00023150       Datasnap.DBClient.TCustomClientDataSet.GetIsClone
 0001:00023038       Datasnap.DBClient.TCustomClientDataSet.GetIsIndexField
 0001:00022ED8       Datasnap.DBClient.TCustomClientDataSet.GetLogChanges
 0001:00022E50       Datasnap.DBClient.TCustomClientDataSet.GetNextPacket
 0001:00022F28       Datasnap.DBClient.TCustomClientDataSet.GetRecNo
 0001:00022F10       Datasnap.DBClient.TCustomClientDataSet.GetRecord
 0001:00022F20       Datasnap.DBClient.TCustomClientDataSet.GetRecordCount
 0001:00022F38       Datasnap.DBClient.TCustomClientDataSet.GetRecordSize
 0001:00022E70       Datasnap.DBClient.TCustomClientDataSet.GetRemoteServer
 0001:00022F68       Datasnap.DBClient.TCustomClientDataSet.GetStateFieldValue
 0001:00022F08       Datasnap.DBClient.TCustomClientDataSet.InitRecord
 0001:00022FE0       Datasnap.DBClient.TCustomClientDataSet.InternalAddRecord
 0001:00022FA8       Datasnap.DBClient.TCustomClientDataSet.InternalCancel
 0001:00022E18       Datasnap.DBClient.TCustomClientDataSet.InternalClose
 0001:00022FB0       Datasnap.DBClient.TCustomClientDataSet.InternalDelete
 0001:00022FB8       Datasnap.DBClient.TCustomClientDataSet.InternalEdit
 0001:00022F90       Datasnap.DBClient.TCustomClientDataSet.InternalFirst
 0001:00022FE8       Datasnap.DBClient.TCustomClientDataSet.InternalGotoBookmark
 0001:00022E30       Datasnap.DBClient.TCustomClientDataSet.InternalHandleException
 0001:00022E08       Datasnap.DBClient.TCustomClientDataSet.InternalInitFieldDefs
 0001:00022EF8       Datasnap.DBClient.TCustomClientDataSet.InternalInitRecord
 0001:00022FC8       Datasnap.DBClient.TCustomClientDataSet.InternalInsert
 0001:00022F98       Datasnap.DBClient.TCustomClientDataSet.InternalLast
 0001:00022E10       Datasnap.DBClient.TCustomClientDataSet.InternalOpen
 0001:00022FA0       Datasnap.DBClient.TCustomClientDataSet.InternalPost
 0001:00022E20       Datasnap.DBClient.TCustomClientDataSet.InternalRefresh
 0001:00022FF0       Datasnap.DBClient.TCustomClientDataSet.InternalSetToRecord
 0001:00022E28       Datasnap.DBClient.TCustomClientDataSet.IsCursorOpen
 0001:00023058       Datasnap.DBClient.TCustomClientDataSet.Loaded
 0001:000230B8       Datasnap.DBClient.TCustomClientDataSet.Locate
 0001:000230B0       Datasnap.DBClient.TCustomClientDataSet.Lookup
 0001:00022EB0       Datasnap.DBClient.TCustomClientDataSet.MergeChangeLog
 0001:00022E80       Datasnap.DBClient.TCustomClientDataSet.Notification
 0001:00022DE0       Datasnap.DBClient.TCustomClientDataSet.OpenCursor
 0001:00022FD0       Datasnap.DBClient.TCustomClientDataSet.Post
 0001:00023140       Datasnap.DBClient.TCustomClientDataSet.PSGetCommandText
 0001:00023148       Datasnap.DBClient.TCustomClientDataSet.PSGetCommandType
 0001:00023138       Datasnap.DBClient.TCustomClientDataSet.PSGetIndexDefs
 0001:00022F80       Datasnap.DBClient.TCustomClientDataSet.RefreshInternalCalcFields
 0001:000230D0       Datasnap.DBClient.TCustomClientDataSet.ResetAggField
 0001:000230C0       Datasnap.DBClient.TCustomClientDataSet.SetAggregates
 0001:00022E60       Datasnap.DBClient.TCustomClientDataSet.SetAppServer
 0001:00023010       Datasnap.DBClient.TCustomClientDataSet.SetBookmarkData
 0001:00023000       Datasnap.DBClient.TCustomClientDataSet.SetBookmarkFlag
 0001:00022DD0       Datasnap.DBClient.TCustomClientDataSet.SetCommandText
 0001:00023050       Datasnap.DBClient.TCustomClientDataSet.SetDataSetField
 0001:00022F70       Datasnap.DBClient.TCustomClientDataSet.SetFieldData
 0001:00023090       Datasnap.DBClient.TCustomClientDataSet.SetFiltered
 0001:00023080       Datasnap.DBClient.TCustomClientDataSet.SetFilterOptions
 0001:00023078       Datasnap.DBClient.TCustomClientDataSet.SetFilterText
 0001:00022ED0       Datasnap.DBClient.TCustomClientDataSet.SetLogChanges
 0001:00023088       Datasnap.DBClient.TCustomClientDataSet.SetOnFilterRecord
 0001:00022DD8       Datasnap.DBClient.TCustomClientDataSet.SetOptionalParam
 0001:00022E68       Datasnap.DBClient.TCustomClientDataSet.SetProviderEOF
 0001:00022F30       Datasnap.DBClient.TCustomClientDataSet.SetRecNo
 0001:00022E78       Datasnap.DBClient.TCustomClientDataSet.SetRemoteServer
 0001:00023098       Datasnap.DBClient.TCustomClientDataSet.SetStatusFilter
 0001:00023030       Datasnap.DBClient.TCustomClientDataSet.UpdateIndexDefs
 0001:00022F50       Datasnap.DBClient.TCustomClientDataSet.UpdateStatus
 0002:00000164       Datasnap.DSIntf.Datasnap.DSIntf
 0001:00022DB0       Datasnap.DSIntf.Finalization
 0002:0000016C       Datasnap.Provider.Datasnap.Provider
 0001:00022DB8       Datasnap.Provider.Finalization
 0004:00000194       SQLite3..1
 0001:00003A70       SQLite3.Finalization
 0001:00002024       SQLite3.LoadProc
 0001:00002110       SQLite3.LoadProcSilent
 0001:00002138       SQLite3.LoadSQLite
 0002:00000098       SQLite3.SQLite3
 0004:00000158       SQLite3.sqlite3_aggregate_context
 0004:000000E8       SQLite3.SQLite3_Backup_Finish
 0004:000000E0       SQLite3.SQLite3_Backup_Init
 0004:000000F0       SQLite3.SQLite3_Backup_Pagecount
 0004:000000EC       SQLite3.SQLite3_Backup_Remaining
 0004:000000E4       SQLite3.SQLite3_Backup_Step
 0004:000000F4       SQLite3.sqlite3_bind_blob
 0004:00000100       SQLite3.sqlite3_bind_double
 0004:00000104       SQLite3.sqlite3_bind_int
 0004:00000108       SQLite3.sqlite3_bind_int64
 0004:0000010C       SQLite3.sqlite3_bind_null
 0004:0000011C       SQLite3.sqlite3_bind_parameter_count
 0004:00000114       SQLite3.sqlite3_bind_parameter_index
 0004:00000118       SQLite3.sqlite3_bind_parameter_name
 0004:000000F8       SQLite3.sqlite3_bind_text
 0004:000000FC       SQLite3.sqlite3_bind_text16
 0004:00000058       SQLite3.SQLite3_BusyHandler
 0004:0000005C       SQLite3.SQLite3_BusyTimeout
 0004:00000060       SQLite3.SQLite3_Changes
 0004:00000110       SQLite3.sqlite3_clear_bindings
 0004:0000002C       SQLite3.SQLite3_Close
 0004:000000B4       SQLite3.SQLite3_ColumnBlob
 0004:000000B8       SQLite3.SQLite3_ColumnBytes
 0004:000000BC       SQLite3.SQLite3_ColumnBytes16
 0004:00000078       SQLite3.SQLite3_ColumnCount
 0004:00000084       SQLite3.SQLite3_ColumnDeclType
 0004:00000088       SQLite3.SQLite3_ColumnDeclType16
 0004:000000C0       SQLite3.SQLite3_ColumnDouble
 0004:000000C4       SQLite3.SQLite3_ColumnInt
 0004:000000D4       SQLite3.SQLite3_ColumnInt64
 0004:0000007C       SQLite3.SQLite3_ColumnName
 0004:00000080       SQLite3.SQLite3_ColumnName16
 0004:000000C8       SQLite3.SQLite3_ColumnText
 0004:000000CC       SQLite3.SQLite3_ColumnText16
 0004:000000D0       SQLite3.SQLite3_ColumnType
 0004:0000004C       SQLite3.SQLite3_Complete
 0004:0000018C       SQLite3.SQLite3_create_collation
 0004:00000190       SQLite3.SQLite3_create_collation16
 0004:00000120       SQLite3.sqlite3_create_function
 0004:00000090       SQLite3.SQLite3_DataCount
 0004:000000AC       SQLite3.sqlite3_enable_load_extension
 0004:00000188       SQLite3.sqlite3_enable_shared_cache
 0004:0000003C       SQLite3.SQLite3_ErrCode
 0004:00000038       SQLite3.SQLite3_ErrMsg
 0004:00000030       SQLite3.SQLite3_Exec
 0004:000000D8       SQLite3.SQLite3_Finalize
 0004:00000040       SQLite3.SQlite3_Free
 0004:00000048       SQLite3.SQLite3_FreeTable
 0004:00000044       SQLite3.SQLite3_GetTable
 0004:00000054       SQLite3.SQLite3_Interrupt
 0004:00000098       SQLite3.sqlite3_key
 0004:00000050       SQLite3.SQLite3_LastInsertRowID
 0004:000000B0       SQLite3.sqlite3_load_extension
 0004:00000094       SQLite3.sqlite3_memory_used
 0004:00000024       SQLite3.sqlite3_open
 0004:00000028       SQLite3.sqlite3_open16
 0004:00000068       SQLite3.SQLite3_Prepare
 0004:00000070       SQLite3.SQLite3_Prepare16
 0004:00000074       SQLite3.SQLite3_Prepare16_v2
 0004:0000006C       SQLite3.SQLite3_Prepare_v2
 0004:0000009C       SQLite3.sqlite3_rekey
 0004:000000DC       SQLite3.SQLite3_Reset
 0004:00000124       SQLite3.sqlite3_result_blob
 0004:00000128       SQLite3.sqlite3_result_double
 0004:0000012C       SQLite3.sqlite3_result_error
 0004:00000130       SQLite3.sqlite3_result_error16
 0004:00000134       SQLite3.sqlite3_result_int
 0004:00000138       SQLite3.sqlite3_result_int64
 0004:0000013C       SQLite3.sqlite3_result_null
 0004:00000140       SQLite3.sqlite3_result_text
 0004:00000144       SQLite3.sqlite3_result_text16
 0004:00000148       SQLite3.sqlite3_result_text16be
 0004:0000014C       SQLite3.sqlite3_result_text16le
 0004:00000150       SQLite3.sqlite3_result_value
 0004:000000A0       SQLite3.sqlite3_set_authorizer
 0004:0000008C       SQLite3.SQLite3_Step
 0004:000000A8       SQLite3.sqlite3_table_column_metadata
 0004:00000064       SQLite3.SQLite3_TotalChanges
 0004:000000A4       SQLite3.sqlite3_update_hook
 0004:00000154       SQLite3.sqlite3_user_data
 0004:0000015C       SQLite3.sqlite3_value_blob
 0004:00000160       SQLite3.sqlite3_value_bytes
 0004:00000164       SQLite3.sqlite3_value_bytes16
 0004:00000168       SQLite3.sqlite3_value_double
 0004:0000016C       SQLite3.sqlite3_value_int
 0004:00000170       SQLite3.sqlite3_value_int64
 0004:00000174       SQLite3.sqlite3_value_text
 0004:00000178       SQLite3.sqlite3_value_text16
 0004:0000017C       SQLite3.sqlite3_value_text16be
 0004:00000180       SQLite3.sqlite3_value_text16le
 0004:00000184       SQLite3.sqlite3_value_type
 0004:00000034       SQLite3.SQLite3_Version
 0001:000013B8       SQLite3.SQLiteErrorStr
 0001:00001204       SQLite3.SQLiteFieldType
 0003:00000094       SQLite3.SQLite_Handle
 0001:00003A50       SQLite3.UnloadSQLite
 0004:000001A0       SQLite3Dataset..3
 0001:000233C4       SQLite3Dataset..TSQLiteDataset
 0001:00023160       SQLite3Dataset..TSQLiteUpdateSQL
 0001:00023D24       SQLite3Dataset..{System.Generics.Collections}TEnumerable<SQLite3Dataset.T3<System.string,System.Boolean,Data.DB.TField>>
 0001:00023B98       SQLite3Dataset..{System.Generics.Collections}TEnumerator<SQLite3Dataset.T3<System.string,System.Boolean,Data.DB.TField>>
 0001:000243D0       SQLite3Dataset..{System.Generics.Collections}TList<SQLite3Dataset.T3<System.string,System.Boolean,Data.DB.TField>>
 0001:000241D0       SQLite3Dataset..{System.Generics.Collections}TList<SQLite3Dataset.T3<System.string,System.Boolean,Data.DB.TField>>.TEnumerator
 0001:00027AF8       SQLite3Dataset..{System.Generics.Defaults}TComparer<SQLite3Dataset.T3<System.string,System.Boolean,Data.DB.TField>>
 0001:00027D94       SQLite3Dataset..{System.Generics.Defaults}TDelegatedComparer<SQLite3Dataset.T3<System.string,System.Boolean,Data.DB.TField>>
 0001:00025168       SQLite3Dataset.DoApplyUpdate
 0001:00025350       SQLite3Dataset.FillParams
 0001:00025FB8       SQLite3Dataset.Finalization
 0002:0000017C       SQLite3Dataset.SQLite3Dataset
 0001:00027710       SQLite3Dataset.TArray.BinarySearch<SQLite3Dataset.T3<System.string,System.Boolean,Data.DB.TField>>
 0001:00027870       SQLite3Dataset.TArray.QuickSort<SQLite3Dataset.T3<System.string,System.Boolean,Data.DB.TField>>
 0001:0002768C       SQLite3Dataset.TArray.Sort<SQLite3Dataset.T3<System.string,System.Boolean,Data.DB.TField>>
 0001:0002576C       SQLite3Dataset.TSQLiteDataset.ApplyUpdates
 0001:000253AC       SQLite3Dataset.TSQLiteDataset.ApplyUpdates
 0001:0002578C       SQLite3Dataset.TSQLiteDataset.Create
 0001:0002582C       SQLite3Dataset.TSQLiteDataset.Destroy
 0001:0002588C       SQLite3Dataset.TSQLiteDataset.DoInitFields
 0001:00025A14       SQLite3Dataset.TSQLiteDataset.DoInternalOpen
 0001:00025B28       SQLite3Dataset.TSQLiteDataset.DoInternalRefreshRecord
 0001:00024E58       SQLite3Dataset.TSQLiteDataset.GetPair
 0001:0002510C       SQLite3Dataset.TSQLiteDataset.Notification
 0001:00025D38       SQLite3Dataset.TSQLiteDataset.RefreshRecord
 0001:00025D88       SQLite3Dataset.TSQLiteDataset.SetActive
 0001:00025EC8       SQLite3Dataset.TSQLiteUpdateSQL.Create
 0001:00025F58       SQLite3Dataset.TSQLiteUpdateSQL.Destroy
 0001:00025FF8       SQLite3Dataset.{SQLite3Dataset}T3<System.string,System.Boolean,Data.DB.TField>.Create
 0001:0002611C       SQLite3Dataset.{System.Generics.Collections}TEnumerable<SQLite3Dataset.T3<System.string,System.Boolean,Data.DB.TField>>.GetEnumerator
 0001:00026138       SQLite3Dataset.{System.Generics.Collections}TEnumerable<SQLite3Dataset.T3<System.string,System.Boolean,Data.DB.TField>>.ToArray
 0001:00026030       SQLite3Dataset.{System.Generics.Collections}TEnumerable<SQLite3Dataset.T3<System.string,System.Boolean,Data.DB.TField>>.ToArrayImpl
 0001:00026234       SQLite3Dataset.{System.Generics.Collections}TEnumerator<SQLite3Dataset.T3<System.string,System.Boolean,Data.DB.TField>>.MoveNext
 0001:0002685C       SQLite3Dataset.{System.Generics.Collections}TList<SQLite3Dataset.T3<System.string,System.Boolean,Data.DB.TField>>.Add
 0001:000268BC       SQLite3Dataset.{System.Generics.Collections}TList<SQLite3Dataset.T3<System.string,System.Boolean,Data.DB.TField>>.AddRange
 0001:00026908       SQLite3Dataset.{System.Generics.Collections}TList<SQLite3Dataset.T3<System.string,System.Boolean,Data.DB.TField>>.AddRange
 0001:000268E4       SQLite3Dataset.{System.Generics.Collections}TList<SQLite3Dataset.T3<System.string,System.Boolean,Data.DB.TField>>.AddRange
 0001:000273A8       SQLite3Dataset.{System.Generics.Collections}TList<SQLite3Dataset.T3<System.string,System.Boolean,Data.DB.TField>>.BinarySearch
 0001:000273F8       SQLite3Dataset.{System.Generics.Collections}TList<SQLite3Dataset.T3<System.string,System.Boolean,Data.DB.TField>>.BinarySearch
 0001:00027154       SQLite3Dataset.{System.Generics.Collections}TList<SQLite3Dataset.T3<System.string,System.Boolean,Data.DB.TField>>.Clear
 0001:00027174       SQLite3Dataset.{System.Generics.Collections}TList<SQLite3Dataset.T3<System.string,System.Boolean,Data.DB.TField>>.Contains
 0001:00026654       SQLite3Dataset.{System.Generics.Collections}TList<SQLite3Dataset.T3<System.string,System.Boolean,Data.DB.TField>>.Create
 0001:000266D8       SQLite3Dataset.{System.Generics.Collections}TList<SQLite3Dataset.T3<System.string,System.Boolean,Data.DB.TField>>.Create
 0001:00026780       SQLite3Dataset.{System.Generics.Collections}TList<SQLite3Dataset.T3<System.string,System.Boolean,Data.DB.TField>>.Create
 0001:00026CCC       SQLite3Dataset.{System.Generics.Collections}TList<SQLite3Dataset.T3<System.string,System.Boolean,Data.DB.TField>>.Delete
 0001:00026CEC       SQLite3Dataset.{System.Generics.Collections}TList<SQLite3Dataset.T3<System.string,System.Boolean,Data.DB.TField>>.DeleteRange
 0001:00026820       SQLite3Dataset.{System.Generics.Collections}TList<SQLite3Dataset.T3<System.string,System.Boolean,Data.DB.TField>>.Destroy
 0001:000264D8       SQLite3Dataset.{System.Generics.Collections}TList<SQLite3Dataset.T3<System.string,System.Boolean,Data.DB.TField>>.DoDelete
 0001:00026604       SQLite3Dataset.{System.Generics.Collections}TList<SQLite3Dataset.T3<System.string,System.Boolean,Data.DB.TField>>.DoGetEnumerator
 0001:00026EF0       SQLite3Dataset.{System.Generics.Collections}TList<SQLite3Dataset.T3<System.string,System.Boolean,Data.DB.TField>>.Exchange
 0001:00026E84       SQLite3Dataset.{System.Generics.Collections}TList<SQLite3Dataset.T3<System.string,System.Boolean,Data.DB.TField>>.Extract
 0001:00027110       SQLite3Dataset.{System.Generics.Collections}TList<SQLite3Dataset.T3<System.string,System.Boolean,Data.DB.TField>>.First
 0001:00026250       SQLite3Dataset.{System.Generics.Collections}TList<SQLite3Dataset.T3<System.string,System.Boolean,Data.DB.TField>>.GetCapacity
 0001:00027514       SQLite3Dataset.{System.Generics.Collections}TList<SQLite3Dataset.T3<System.string,System.Boolean,Data.DB.TField>>.GetEnumerator
 0001:00026324       SQLite3Dataset.{System.Generics.Collections}TList<SQLite3Dataset.T3<System.string,System.Boolean,Data.DB.TField>>.GetItem
 0001:0002644C       SQLite3Dataset.{System.Generics.Collections}TList<SQLite3Dataset.T3<System.string,System.Boolean,Data.DB.TField>>.Grow
 0001:000264A0       SQLite3Dataset.{System.Generics.Collections}TList<SQLite3Dataset.T3<System.string,System.Boolean,Data.DB.TField>>.GrowCheck
 0001:00027198       SQLite3Dataset.{System.Generics.Collections}TList<SQLite3Dataset.T3<System.string,System.Boolean,Data.DB.TField>>.IndexOf
 0001:0002692C       SQLite3Dataset.{System.Generics.Collections}TList<SQLite3Dataset.T3<System.string,System.Boolean,Data.DB.TField>>.Insert
 0001:00026B38       SQLite3Dataset.{System.Generics.Collections}TList<SQLite3Dataset.T3<System.string,System.Boolean,Data.DB.TField>>.InsertRange
 0001:00026A04       SQLite3Dataset.{System.Generics.Collections}TList<SQLite3Dataset.T3<System.string,System.Boolean,Data.DB.TField>>.InsertRange
 0001:00026BD8       SQLite3Dataset.{System.Generics.Collections}TList<SQLite3Dataset.T3<System.string,System.Boolean,Data.DB.TField>>.InsertRange
 0001:00027130       SQLite3Dataset.{System.Generics.Collections}TList<SQLite3Dataset.T3<System.string,System.Boolean,Data.DB.TField>>.Last
 0001:000271FC       SQLite3Dataset.{System.Generics.Collections}TList<SQLite3Dataset.T3<System.string,System.Boolean,Data.DB.TField>>.LastIndexOf
 0001:00026FA8       SQLite3Dataset.{System.Generics.Collections}TList<SQLite3Dataset.T3<System.string,System.Boolean,Data.DB.TField>>.Move
 0001:00026620       SQLite3Dataset.{System.Generics.Collections}TList<SQLite3Dataset.T3<System.string,System.Boolean,Data.DB.TField>>.Notify
 0001:00026C98       SQLite3Dataset.{System.Generics.Collections}TList<SQLite3Dataset.T3<System.string,System.Boolean,Data.DB.TField>>.Remove
 0001:0002725C       SQLite3Dataset.{System.Generics.Collections}TList<SQLite3Dataset.T3<System.string,System.Boolean,Data.DB.TField>>.Reverse
 0001:00026270       SQLite3Dataset.{System.Generics.Collections}TList<SQLite3Dataset.T3<System.string,System.Boolean,Data.DB.TField>>.SetCapacity
 0001:000262B4       SQLite3Dataset.{System.Generics.Collections}TList<SQLite3Dataset.T3<System.string,System.Boolean,Data.DB.TField>>.SetCount
 0001:0002637C       SQLite3Dataset.{System.Generics.Collections}TList<SQLite3Dataset.T3<System.string,System.Boolean,Data.DB.TField>>.SetItem
 0001:0002736C       SQLite3Dataset.{System.Generics.Collections}TList<SQLite3Dataset.T3<System.string,System.Boolean,Data.DB.TField>>.Sort
 0001:00027330       SQLite3Dataset.{System.Generics.Collections}TList<SQLite3Dataset.T3<System.string,System.Boolean,Data.DB.TField>>.Sort
 0001:00027594       SQLite3Dataset.{System.Generics.Collections}TList<SQLite3Dataset.T3<System.string,System.Boolean,Data.DB.TField>>.TEnumerator.Create
 0001:0002755C       SQLite3Dataset.{System.Generics.Collections}TList<SQLite3Dataset.T3<System.string,System.Boolean,Data.DB.TField>>.TEnumerator.DoGetCurrent
 0001:00027578       SQLite3Dataset.{System.Generics.Collections}TList<SQLite3Dataset.T3<System.string,System.Boolean,Data.DB.TField>>.TEnumerator.DoMoveNext
 0001:00027538       SQLite3Dataset.{System.Generics.Collections}TList<SQLite3Dataset.T3<System.string,System.Boolean,Data.DB.TField>>.TEnumerator.GetCurrent
 0001:000275EC       SQLite3Dataset.{System.Generics.Collections}TList<SQLite3Dataset.T3<System.string,System.Boolean,Data.DB.TField>>.TEnumerator.MoveNext
 0001:00027460       SQLite3Dataset.{System.Generics.Collections}TList<SQLite3Dataset.T3<System.string,System.Boolean,Data.DB.TField>>.ToArray
 0001:00027448       SQLite3Dataset.{System.Generics.Collections}TList<SQLite3Dataset.T3<System.string,System.Boolean,Data.DB.TField>>.TrimExcess
 0001:00027C7C       SQLite3Dataset.{System.Generics.Defaults}TComparer<SQLite3Dataset.T3<System.string,System.Boolean,Data.DB.TField>>.Compare
 0001:00027658       SQLite3Dataset.{System.Generics.Defaults}TComparer<SQLite3Dataset.T3<System.string,System.Boolean,Data.DB.TField>>.Construct
 0001:0002762C       SQLite3Dataset.{System.Generics.Defaults}TComparer<SQLite3Dataset.T3<System.string,System.Boolean,Data.DB.TField>>.Default
 0001:00027844       SQLite3Dataset.{System.Generics.Defaults}TDelegatedComparer<SQLite3Dataset.T3<System.string,System.Boolean,Data.DB.TField>>.Compare
 0001:000277FC       SQLite3Dataset.{System.Generics.Defaults}TDelegatedComparer<SQLite3Dataset.T3<System.string,System.Boolean,Data.DB.TField>>.Create
 0004:000001A4       SQLite3Register..1
 0001:00027FD8       SQLite3Register.Finalization
 0001:00027F88       SQLite3Register.Register
 0002:00000184       SQLite3Register.SQLite3Register
 0004:0000019C       SQLiteTable3..01
 0001:00003EA0       SQLiteTable3..ESQLiteException
 0001:00004960       SQLiteTable3..TSQLiteDatabase
 0001:00007120       SQLiteTable3..TSQLiteField
 0001:0000447C       SQLiteTable3..TSQLiteFunctions
 0001:00003F50       SQLiteTable3..TSQliteParam
 0001:00006594       SQLiteTable3..TSQLitePreparedStatement
 0001:00005C84       SQLiteTable3..TSQLiteTable
 0001:000079CC       SQLiteTable3..TSQLiteUniTable
 0001:00007608       SQLiteTable3..TUniTableEnumerator
 0001:0000D75C       SQLiteTable3..TVarDataRecordType
 0001:0000A9C8       SQLiteTable3..{System.Generics.Collections}TDictionary<System.string,System.Integer>
 0001:00009F50       SQLiteTable3..{System.Generics.Collections}TDictionary<System.string,System.Integer>.TKeyCollection
 0001:00009D74       SQLiteTable3..{System.Generics.Collections}TDictionary<System.string,System.Integer>.TKeyEnumerator
 0001:0000A7EC       SQLiteTable3..{System.Generics.Collections}TDictionary<System.string,System.Integer>.TPairEnumerator
 0001:0000A5E0       SQLiteTable3..{System.Generics.Collections}TDictionary<System.string,System.Integer>.TValueCollection
 0001:0000A400       SQLiteTable3..{System.Generics.Collections}TDictionary<System.string,System.Integer>.TValueEnumerator
 0001:000084F4       SQLiteTable3..{System.Generics.Collections}TEnumerable<SQLiteTable3.PSQLiteFuncs>
 0001:000096A0       SQLiteTable3..{System.Generics.Collections}TEnumerable<SQLiteTable3.TPair<System.string,System.Integer>>
 0001:0000C5E4       SQLiteTable3..{System.Generics.Collections}TEnumerable<SQLiteTable3.TSQLiteField>
 0001:0000B2E4       SQLiteTable3..{System.Generics.Collections}TEnumerable<SQLiteTable3.TSQliteParam>
 0001:0000A2BC       SQLiteTable3..{System.Generics.Collections}TEnumerable<System.Integer>
 0001:00009C34       SQLiteTable3..{System.Generics.Collections}TEnumerable<System.string>
 0001:000083B0       SQLiteTable3..{System.Generics.Collections}TEnumerator<SQLiteTable3.PSQLiteFuncs>
 0001:00009530       SQLiteTable3..{System.Generics.Collections}TEnumerator<SQLiteTable3.TPair<System.string,System.Integer>>
 0001:0000C4A0       SQLiteTable3..{System.Generics.Collections}TEnumerator<SQLiteTable3.TSQLiteField>
 0001:0000B1A0       SQLiteTable3..{System.Generics.Collections}TEnumerator<SQLiteTable3.TSQliteParam>
 0001:0000A190       SQLiteTable3..{System.Generics.Collections}TEnumerator<System.Integer>
 0001:00009B08       SQLiteTable3..{System.Generics.Collections}TEnumerator<System.string>
 0001:00008A30       SQLiteTable3..{System.Generics.Collections}TList<SQLiteTable3.PSQLiteFuncs>
 0001:00008878       SQLiteTable3..{System.Generics.Collections}TList<SQLiteTable3.PSQLiteFuncs>.TEnumerator
 0001:0001F148       SQLiteTable3..{System.Generics.Collections}TList<SQLiteTable3.TPair<System.string,System.Integer>>
 0001:0001EF64       SQLiteTable3..{System.Generics.Collections}TList<SQLiteTable3.TPair<System.string,System.Integer>>.TEnumerator
 0001:0000CB20       SQLiteTable3..{System.Generics.Collections}TList<SQLiteTable3.TSQLiteField>
 0001:0000C968       SQLiteTable3..{System.Generics.Collections}TList<SQLiteTable3.TSQLiteField>.TEnumerator
 0001:0000B820       SQLiteTable3..{System.Generics.Collections}TList<SQLiteTable3.TSQliteParam>
 0001:0000B668       SQLiteTable3..{System.Generics.Collections}TList<SQLiteTable3.TSQliteParam>.TEnumerator
 0001:00020B04       SQLiteTable3..{System.Generics.Collections}TList<System.Integer>
 0001:00020964       SQLiteTable3..{System.Generics.Collections}TList<System.Integer>.TEnumerator
 0001:0001FE48       SQLiteTable3..{System.Generics.Collections}TList<System.string>
 0001:0001FCA8       SQLiteTable3..{System.Generics.Collections}TList<System.string>.TEnumerator
 0001:0000D530       SQLiteTable3..{System.Generics.Collections}TObjectList<SQLiteTable3.TSQLiteField>
 0001:0000C230       SQLiteTable3..{System.Generics.Collections}TObjectList<SQLiteTable3.TSQliteParam>
 0001:0001EAE8       SQLiteTable3..{System.Generics.Defaults}TComparer<SQLiteTable3.PSQLiteFuncs>
 0001:00021D5C       SQLiteTable3..{System.Generics.Defaults}TComparer<SQLiteTable3.TPair<System.string,System.Integer>>
 0001:000218AC       SQLiteTable3..{System.Generics.Defaults}TComparer<SQLiteTable3.TSQLiteField>
 0001:000215C0       SQLiteTable3..{System.Generics.Defaults}TComparer<SQLiteTable3.TSQliteParam>
 0001:0002233C       SQLiteTable3..{System.Generics.Defaults}TComparer<System.Integer>
 0001:0002207C       SQLiteTable3..{System.Generics.Defaults}TComparer<System.string>
 0001:00021AD8       SQLiteTable3..{System.Generics.Defaults}TDelegatedComparer<SQLiteTable3.PSQLiteFuncs>
 0001:0002289C       SQLiteTable3..{System.Generics.Defaults}TDelegatedComparer<SQLiteTable3.TPair<System.string,System.Integer>>
 0001:000226F0       SQLiteTable3..{System.Generics.Defaults}TDelegatedComparer<SQLiteTable3.TSQLiteField>
 0001:00022544       SQLiteTable3..{System.Generics.Defaults}TDelegatedComparer<SQLiteTable3.TSQliteParam>
 0001:00022C0C       SQLiteTable3..{System.Generics.Defaults}TDelegatedComparer<System.Integer>
 0001:00022A78       SQLiteTable3..{System.Generics.Defaults}TDelegatedComparer<System.string>
 0001:0000DCEC       SQLiteTable3.AggFinalDefFunc
 0001:0000DD5C       SQLiteTable3.AggStepDefFunc
 0003:000000C0       SQLiteTable3.DEF_COLTYPES
 0003:0000009C       SQLiteTable3.DEF_COLTYPES_NAMES
 0001:0000DCD8       SQLiteTable3.DisposePointer
 0001:0000DE88       SQLiteTable3.DoAuthorize
 0001:0000DF48       SQLiteTable3.DoUpdateHook
 0001:00014CB4       SQLiteTable3.Finalization
 0001:0000DDD8       SQLiteTable3.ScalarDefFunc
 0001:0000E000       SQLiteTable3.SQLiteDataTypeToDelphiFieldType
 0002:00000114       SQLiteTable3.SQLiteTable3
 0001:0000DFD4       SQLiteTable3.SystemCollate
 0001:0001A050       SQLiteTable3.TArray.BinarySearch<SQLiteTable3.PSQLiteFuncs>
 0001:0001DD68       SQLiteTable3.TArray.BinarySearch<SQLiteTable3.TPair<System.string,System.Integer>>
 0001:0001DA20       SQLiteTable3.TArray.BinarySearch<SQLiteTable3.TSQLiteField>
 0001:0001D854       SQLiteTable3.TArray.BinarySearch<SQLiteTable3.TSQliteParam>
 0001:0001E100       SQLiteTable3.TArray.BinarySearch<System.Integer>
 0001:0001DF34       SQLiteTable3.TArray.BinarySearch<System.string>
 0001:0001DB7C       SQLiteTable3.TArray.QuickSort<SQLiteTable3.PSQLiteFuncs>
 0001:0001E554       SQLiteTable3.TArray.QuickSort<SQLiteTable3.TPair<System.string,System.Integer>>
 0001:0001E3D8       SQLiteTable3.TArray.QuickSort<SQLiteTable3.TSQLiteField>
 0001:0001E25C       SQLiteTable3.TArray.QuickSort<SQLiteTable3.TSQliteParam>
 0001:0001E920       SQLiteTable3.TArray.QuickSort<System.Integer>
 0001:0001E754       SQLiteTable3.TArray.QuickSort<System.string>
 0001:00019FCC       SQLiteTable3.TArray.Sort<SQLiteTable3.PSQLiteFuncs>
 0001:0001DCE4       SQLiteTable3.TArray.Sort<SQLiteTable3.TPair<System.string,System.Integer>>
 0001:0001D99C       SQLiteTable3.TArray.Sort<SQLiteTable3.TSQLiteField>
 0001:0001D7D0       SQLiteTable3.TArray.Sort<SQLiteTable3.TSQliteParam>
 0001:0001E07C       SQLiteTable3.TArray.Sort<System.Integer>
 0001:0001DEB0       SQLiteTable3.TArray.Sort<System.string>
 0001:000102A4       SQLiteTable3.TSQLiteDatabase.AddCustomCollate
 0001:000104AC       SQLiteTable3.TSQLiteDatabase.AddNewSupportedColumnType
 0001:00010518       SQLiteTable3.TSQLiteDatabase.AddParamFloat
 0001:00010454       SQLiteTable3.TSQLiteDatabase.AddParamInt
 0001:000105C8       SQLiteTable3.TSQLiteDatabase.AddParamNull
 0001:00010570       SQLiteTable3.TSQLiteDatabase.AddParamText
 0001:000102DC       SQLiteTable3.TSQLiteDatabase.AddSystemCollate
 0001:00010318       SQLiteTable3.TSQLiteDatabase.Analyze
 0001:0001034C       SQLiteTable3.TSQLiteDatabase.Attach
 0001:000109E8       SQLiteTable3.TSQLiteDatabase.Backup
 0001:00010B34       SQLiteTable3.TSQLiteDatabase.Backup
 0001:0000FDC4       SQLiteTable3.TSQLiteDatabase.BeginTransaction
 0001:0000ED74       SQLiteTable3.TSQLiteDatabase.BindSQL
 0001:0000EE70       SQLiteTable3.TSQLiteDatabase.BindSQL
 0001:0000FE74       SQLiteTable3.TSQLiteDatabase.ChangePassword
 0001:0000FFCC       SQLiteTable3.TSQLiteDatabase.Close
 0001:00010034       SQLiteTable3.TSQLiteDatabase.Commit
 0001:0000E254       SQLiteTable3.TSQLiteDatabase.Create
 0001:0000E078       SQLiteTable3.TSQLiteDatabase.Create
 0001:0000E2A0       SQLiteTable3.TSQLiteDatabase.Destroy
 0001:000109BC       SQLiteTable3.TSQLiteDatabase.DoQuery
 0001:0000EB9C       SQLiteTable3.TSQLiteDatabase.ExecSQL
 0001:0000E8E8       SQLiteTable3.TSQLiteDatabase.ExecSQL
 0001:0000EA94       SQLiteTable3.TSQLiteDatabase.ExecSQL
 0001:0000EBC8       SQLiteTable3.TSQLiteDatabase.ExecSQL
 0001:0000EC3C       SQLiteTable3.TSQLiteDatabase.ExecSQL
 0004:00000198       SQLiteTable3.TSQLiteDatabase.FColumnTypes
 0001:0000E41C       SQLiteTable3.TSQLiteDatabase.GetLastChangedRows
 0001:0000E300       SQLiteTable3.TSQLiteDatabase.GetLastInsertRowID
 0001:0000E32C       SQLiteTable3.TSQLiteDatabase.GetMemoryUsed
 0001:0000E3F0       SQLiteTable3.TSQLiteDatabase.GetPreparedStatement
 0001:0000E350       SQLiteTable3.TSQLiteDatabase.GetPreparedStatement
 0001:0000E3B8       SQLiteTable3.TSQLiteDatabase.GetPreparedStatementIntf
 0001:0000E388       SQLiteTable3.TSQLiteDatabase.GetPreparedStatementIntf
 0001:00010984       SQLiteTable3.TSQLiteDatabase.GetRowsChanged
 0001:0000F3F0       SQLiteTable3.TSQLiteDatabase.GetTable
 0001:0000F41C       SQLiteTable3.TSQLiteDatabase.GetTableColumnMetadata
 0001:0000FC54       SQLiteTable3.TSQLiteDatabase.GetTableString
 0001:0000FCE0       SQLiteTable3.TSQLiteDatabase.GetTableStrings
 0001:0000FBBC       SQLiteTable3.TSQLiteDatabase.GetTableValue
 0001:0000F5AC       SQLiteTable3.TSQLiteDatabase.GetUniTable
 0001:0000F5D4       SQLiteTable3.TSQLiteDatabase.GetUniTable
 0001:0000F6B4       SQLiteTable3.TSQLiteDatabase.GetUniTableIntf
 0001:0000F640       SQLiteTable3.TSQLiteDatabase.GetUniTableIntf
 0001:0000F718       SQLiteTable3.TSQLiteDatabase.InitDefaultColumnTypes
 0001:0000F75C       SQLiteTable3.TSQLiteDatabase.LoadExtension
 0001:0000F838       SQLiteTable3.TSQLiteDatabase.Open
 0001:00010404       SQLiteTable3.TSQLiteDatabase.ParamsClear
 0001:0000EC64       SQLiteTable3.TSQLiteDatabase.PrepareSQL
 0001:0000E5C0       SQLiteTable3.TSQLiteDatabase.RaiseError
 0001:0000E440       SQLiteTable3.TSQLiteDatabase.RaiseError
 0001:0000EF7C       SQLiteTable3.TSQLiteDatabase.Reindex
 0001:0000EFB0       SQLiteTable3.TSQLiteDatabase.ReleaseSQL
 0001:00010070       SQLiteTable3.TSQLiteDatabase.Rollback
 0001:00010610       SQLiteTable3.TSQLiteDatabase.SetConnected
 0001:0001066C       SQLiteTable3.TSQLiteDatabase.SetEvents
 0001:000106A4       SQLiteTable3.TSQLiteDatabase.SetExtEnabled
 0001:000106F4       SQLiteTable3.TSQLiteDatabase.SetFilename
 0001:00010728       SQLiteTable3.TSQLiteDatabase.SetOnAuthorize
 0001:00010798       SQLiteTable3.TSQLiteDatabase.SetOnUpdate
 0001:00010808       SQLiteTable3.TSQLiteDatabase.SetParams
 0001:0000E7B8       SQLiteTable3.TSQLiteDatabase.SetReadUncommitted
 0001:0000E6E4       SQLiteTable3.TSQLiteDatabase.SetSynchronised
 0001:00010224       SQLiteTable3.TSQLiteDatabase.SetTimeout
 0001:000100B0       SQLiteTable3.TSQLiteDatabase.TableExists
 0001:0000F094       SQLiteTable3.TSQLiteDatabase.UpdateBlob
 0001:0001024C       SQLiteTable3.TSQLiteDatabase.Vacuum
 0001:00010280       SQLiteTable3.TSQLiteDatabase.Version
 0001:00014184       SQLiteTable3.TSQLiteField.AsBlob
 0001:000141A8       SQLiteTable3.TSQLiteField.AsBlobPtr
 0001:000141D4       SQLiteTable3.TSQLiteField.AsBlobText
 0001:000141F8       SQLiteTable3.TSQLiteField.AsBlobTextDef
 0001:00014258       SQLiteTable3.TSQLiteField.AsDateTime
 0001:000142B8       SQLiteTable3.TSQLiteField.AsDateTimeDef
 0001:00014318       SQLiteTable3.TSQLiteField.AsDouble
 0001:00014340       SQLiteTable3.TSQLiteField.AsDoubleDef
 0001:000143A0       SQLiteTable3.TSQLiteField.AsInteger
 0001:000143CC       SQLiteTable3.TSQLiteField.AsIntegerDef
 0001:00014430       SQLiteTable3.TSQLiteField.AsString
 0001:00014454       SQLiteTable3.TSQLiteField.AsStringDef
 0001:000144B4       SQLiteTable3.TSQLiteField.Create
 0001:000144F8       SQLiteTable3.TSQLiteField.Destroy
 0001:00014534       SQLiteTable3.TSQLiteField.IsNull
 0001:00014558       SQLiteTable3.TSQLiteField.Value
 0001:00014580       SQLiteTable3.TSQLiteField.ValueDef
 0001:000145E0       SQLiteTable3.TSQLiteFunctions.AddAggregateFunction
 0001:00014788       SQLiteTable3.TSQLiteFunctions.AddScalarFunction
 0001:00014910       SQLiteTable3.TSQLiteFunctions.Clear
 0001:00014998       SQLiteTable3.TSQLiteFunctions.Create
 0001:000149F8       SQLiteTable3.TSQLiteFunctions.Destroy
 0001:00014A44       SQLiteTable3.TSQLiteFunctions.GetValueType
 0001:00014A6C       SQLiteTable3.TSQLiteFunctions.ResultAsFloat
 0001:00014A94       SQLiteTable3.TSQLiteFunctions.ResultAsInteger
 0001:00014ABC       SQLiteTable3.TSQLiteFunctions.ResultAsNull
 0001:00014ADC       SQLiteTable3.TSQLiteFunctions.ResultAsString
 0001:00014B40       SQLiteTable3.TSQLiteFunctions.ValueAsFloat
 0001:00014B68       SQLiteTable3.TSQLiteFunctions.ValueAsInteger
 0001:00014B94       SQLiteTable3.TSQLiteFunctions.ValueAsString
 0001:00012AFC       SQLiteTable3.TSQliteParam.Create
 0001:00013E78       SQLiteTable3.TSQLitePreparedStatement.BindParameterCount
 0001:00013EAC       SQLiteTable3.TSQLitePreparedStatement.BindParameterName
 0001:00013EF0       SQLiteTable3.TSQLitePreparedStatement.BindParams
 0001:000136D8       SQLiteTable3.TSQLitePreparedStatement.ClearParams
 0001:00013878       SQLiteTable3.TSQLitePreparedStatement.Create
 0001:00013718       SQLiteTable3.TSQLitePreparedStatement.Create
 0001:000138CC       SQLiteTable3.TSQLitePreparedStatement.Create
 0001:00013950       SQLiteTable3.TSQLitePreparedStatement.Destroy
 0001:000139C0       SQLiteTable3.TSQLitePreparedStatement.ExecQuery
 0001:000139E4       SQLiteTable3.TSQLitePreparedStatement.ExecQuery
 0001:00013A0C       SQLiteTable3.TSQLitePreparedStatement.ExecQuery
 0001:00013A70       SQLiteTable3.TSQLitePreparedStatement.ExecQueryIntf
 0001:00013AD4       SQLiteTable3.TSQLitePreparedStatement.ExecQueryIntf
 0001:00013AA8       SQLiteTable3.TSQLitePreparedStatement.ExecQueryIntf
 0001:00013C94       SQLiteTable3.TSQLitePreparedStatement.ExecSQL
 0001:00013CBC       SQLiteTable3.TSQLitePreparedStatement.ExecSQL
 0001:00013B04       SQLiteTable3.TSQLitePreparedStatement.ExecSQL
 0001:00013C2C       SQLiteTable3.TSQLitePreparedStatement.ExecSQL
 0001:00013C50       SQLiteTable3.TSQLitePreparedStatement.ExecSQL
 0001:00013CE0       SQLiteTable3.TSQLitePreparedStatement.ExecSQLAndMapData
 0001:00013CE0       SQLiteTable3.TSQLitePreparedStatement.GetParamCount
 0001:00013CFC       SQLiteTable3.TSQLitePreparedStatement.GetParams
 0001:00013D50       SQLiteTable3.TSQLitePreparedStatement.PrepareStatement
 0001:00013D20       SQLiteTable3.TSQLitePreparedStatement.PrepareStatement
 0001:00012C30       SQLiteTable3.TSQLitePreparedStatement.SetParamBlob
 0001:00012C54       SQLiteTable3.TSQLitePreparedStatement.SetParamBlob
 0001:00012C78       SQLiteTable3.TSQLitePreparedStatement.SetParamBlobInternal
 0001:00012DD4       SQLiteTable3.TSQLitePreparedStatement.SetParamDate
 0001:00012BC8       SQLiteTable3.TSQLitePreparedStatement.SetParamDate
 0001:00012E3C       SQLiteTable3.TSQLitePreparedStatement.SetParamDateTime
 0001:00012B60       SQLiteTable3.TSQLitePreparedStatement.SetParamDateTime
 0001:00012EA4       SQLiteTable3.TSQLitePreparedStatement.SetParamFloat
 0001:00012F30       SQLiteTable3.TSQLitePreparedStatement.SetParamFloat
 0001:00012ECC       SQLiteTable3.TSQLitePreparedStatement.SetParamFloatInternal
 0001:00012F58       SQLiteTable3.TSQLitePreparedStatement.SetParamInt
 0001:00012F80       SQLiteTable3.TSQLitePreparedStatement.SetParamInt
 0001:00012FA8       SQLiteTable3.TSQLitePreparedStatement.SetParamIntInternal
 0001:0001302C       SQLiteTable3.TSQLitePreparedStatement.SetParamNull
 0001:0001300C       SQLiteTable3.TSQLitePreparedStatement.SetParamNull
 0001:0001304C       SQLiteTable3.TSQLitePreparedStatement.SetParamNullInternal
 0001:000130A0       SQLiteTable3.TSQLitePreparedStatement.SetParams
 0001:00013388       SQLiteTable3.TSQLitePreparedStatement.SetParamText
 0001:000133AC       SQLiteTable3.TSQLitePreparedStatement.SetParamText
 0001:000133D0       SQLiteTable3.TSQLitePreparedStatement.SetParamTextInternal
 0001:00013434       SQLiteTable3.TSQLitePreparedStatement.SetParamVariant
 0001:00013458       SQLiteTable3.TSQLitePreparedStatement.SetParamVariant
 0001:0001347C       SQLiteTable3.TSQLitePreparedStatement.SetParamVariantInternal
 0001:0001365C       SQLiteTable3.TSQLitePreparedStatement.SetSQL
 0001:00010B78       SQLiteTable3.TSQLiteTable.Create
 0001:0001118C       SQLiteTable3.TSQLiteTable.Destroy
 0001:00011708       SQLiteTable3.TSQLiteTable.FieldAsBlob
 0001:00011818       SQLiteTable3.TSQLiteTable.FieldAsBlobText
 0001:00011A58       SQLiteTable3.TSQLiteTable.FieldAsDouble
 0001:000118D0       SQLiteTable3.TSQLiteTable.FieldAsInteger
 0001:00011BC8       SQLiteTable3.TSQLiteTable.FieldAsString
 0001:00011C70       SQLiteTable3.TSQLiteTable.FieldIsNull
 0001:000113E8       SQLiteTable3.TSQLiteTable.GetBOF
 0001:000112F4       SQLiteTable3.TSQLiteTable.GetColumns
 0001:00011388       SQLiteTable3.TSQLiteTable.GetCount
 0001:0001131C       SQLiteTable3.TSQLiteTable.GetCountResult
 0001:000113A4       SQLiteTable3.TSQLiteTable.GetEOF
 0001:00011430       SQLiteTable3.TSQLiteTable.GetFieldIndex
 0001:000115E0       SQLiteTable3.TSQLiteTable.GetFields
 0001:00011404       SQLiteTable3.TSQLiteTable.GetFieldValByName
 0001:000113C4       SQLiteTable3.TSQLiteTable.GetIsLastRow
 0001:00011D60       SQLiteTable3.TSQLiteTable.MoveFirst
 0001:00011D8C       SQLiteTable3.TSQLiteTable.MoveLast
 0001:00011DBC       SQLiteTable3.TSQLiteTable.MoveTo
 0001:00011D08       SQLiteTable3.TSQLiteTable.Next
 0001:00011D34       SQLiteTable3.TSQLiteTable.Previous
 0001:00011DF4       SQLiteTable3.TSQLiteUniTable.Create
 0001:00011EE4       SQLiteTable3.TSQLiteUniTable.Create
 0001:00011E50       SQLiteTable3.TSQLiteUniTable.Create
 0001:00011F40       SQLiteTable3.TSQLiteUniTable.Destroy
 0001:0001221C       SQLiteTable3.TSQLiteUniTable.FieldAsBlob
 0001:000122B4       SQLiteTable3.TSQLiteUniTable.FieldAsBlobPtr
 0001:00012300       SQLiteTable3.TSQLiteUniTable.FieldAsBlobText
 0001:000123E4       SQLiteTable3.TSQLiteUniTable.FieldAsDouble
 0001:00012414       SQLiteTable3.TSQLiteUniTable.FieldAsInteger
 0001:00012448       SQLiteTable3.TSQLiteUniTable.FieldAsString
 0001:0001246C       SQLiteTable3.TSQLiteUniTable.FieldIsNull
 0001:0001249C       SQLiteTable3.TSQLiteUniTable.FindField
 0001:00012518       SQLiteTable3.TSQLiteUniTable.GetColumns
 0001:00012540       SQLiteTable3.TSQLiteUniTable.GetCurrentRec
 0001:00011FAC       SQLiteTable3.TSQLiteUniTable.GetDataTypes
 0001:000121DC       SQLiteTable3.TSQLiteUniTable.GetEnumerator
 0001:00012200       SQLiteTable3.TSQLiteUniTable.GetEOF
 0001:0001255C       SQLiteTable3.TSQLiteUniTable.GetField
 0001:00012580       SQLiteTable3.TSQLiteUniTable.GetFieldByName
 0001:000125AC       SQLiteTable3.TSQLiteUniTable.GetFieldByNameAsString
 0001:000125D8       SQLiteTable3.TSQLiteUniTable.GetFieldCount
 0001:000125F4       SQLiteTable3.TSQLiteUniTable.GetFieldIndex
 0001:000127A4       SQLiteTable3.TSQLiteUniTable.GetFieldsAsString
 0001:000127D8       SQLiteTable3.TSQLiteUniTable.GetFieldsVal
 0001:000129EC       SQLiteTable3.TSQLiteUniTable.GetRow
 0001:00012A08       SQLiteTable3.TSQLiteUniTable.Next
 0001:00012AC0       SQLiteTable3.TSQLiteUniTable.SetField
 0001:00012AD4       SQLiteTable3.TSQLiteUniTable.SetFieldByName
 0001:00012AE8       SQLiteTable3.TSQLiteUniTable.SetFields
 0001:00014BC4       SQLiteTable3.TUniTableEnumerator.Create
 0001:00014C18       SQLiteTable3.TUniTableEnumerator.Destroy
 0001:00014C54       SQLiteTable3.TUniTableEnumerator.GetCurrent
 0001:00014C74       SQLiteTable3.TUniTableEnumerator.MoveNext
 0001:0000D9E4       SQLiteTable3.TVarDataRecordType.Clear
 0001:0000DA00       SQLiteTable3.TVarDataRecordType.Copy
 0001:0000DA28       SQLiteTable3.TVarDataRecordType.GetProperty
 0001:0000DAB0       SQLiteTable3.TVarDataRecordType.SetProperty
 0001:0000D9A0       SQLiteTable3.VarDataRecord
 0001:0000D9B8       SQLiteTable3.VarDataRecordCreate
 0003:00000098       SQLiteTable3.VarDataRecordType
 0001:00016BE0       SQLiteTable3.{System.Generics.Collections}TDictionary<System.string,System.Integer>.Add
 0001:00016E58       SQLiteTable3.{System.Generics.Collections}TDictionary<System.string,System.Integer>.AddOrSetValue
 0001:00016CF0       SQLiteTable3.{System.Generics.Collections}TDictionary<System.string,System.Integer>.Clear
 0001:00016ED0       SQLiteTable3.{System.Generics.Collections}TDictionary<System.string,System.Integer>.ContainsKey
 0001:00016F04       SQLiteTable3.{System.Generics.Collections}TDictionary<System.string,System.Integer>.ContainsValue
 0001:000169AC       SQLiteTable3.{System.Generics.Collections}TDictionary<System.string,System.Integer>.Create
 0001:000168DC       SQLiteTable3.{System.Generics.Collections}TDictionary<System.string,System.Integer>.Create
 0001:00016A9C       SQLiteTable3.{System.Generics.Collections}TDictionary<System.string,System.Integer>.Create
 0001:00016844       SQLiteTable3.{System.Generics.Collections}TDictionary<System.string,System.Integer>.Create
 0001:00016890       SQLiteTable3.{System.Generics.Collections}TDictionary<System.string,System.Integer>.Create
 0001:00016B90       SQLiteTable3.{System.Generics.Collections}TDictionary<System.string,System.Integer>.Destroy
 0001:00016594       SQLiteTable3.{System.Generics.Collections}TDictionary<System.string,System.Integer>.DoAdd
 0001:000167C0       SQLiteTable3.{System.Generics.Collections}TDictionary<System.string,System.Integer>.DoGetEnumerator
 0001:00016660       SQLiteTable3.{System.Generics.Collections}TDictionary<System.string,System.Integer>.DoRemove
 0001:00016608       SQLiteTable3.{System.Generics.Collections}TDictionary<System.string,System.Integer>.DoSetValue
 0001:00016C8C       SQLiteTable3.{System.Generics.Collections}TDictionary<System.string,System.Integer>.ExtractPair
 0001:00016358       SQLiteTable3.{System.Generics.Collections}TDictionary<System.string,System.Integer>.GetBucketIndex
 0001:00017044       SQLiteTable3.{System.Generics.Collections}TDictionary<System.string,System.Integer>.GetEnumerator
 0001:0001643C       SQLiteTable3.{System.Generics.Collections}TDictionary<System.string,System.Integer>.GetItem
 0001:00016FD4       SQLiteTable3.{System.Generics.Collections}TDictionary<System.string,System.Integer>.GetKeys
 0001:0001700C       SQLiteTable3.{System.Generics.Collections}TDictionary<System.string,System.Integer>.GetValues
 0001:00016320       SQLiteTable3.{System.Generics.Collections}TDictionary<System.string,System.Integer>.Grow
 0001:0001640C       SQLiteTable3.{System.Generics.Collections}TDictionary<System.string,System.Integer>.Hash
 0001:000167DC       SQLiteTable3.{System.Generics.Collections}TDictionary<System.string,System.Integer>.KeyNotify
 0001:000161D0       SQLiteTable3.{System.Generics.Collections}TDictionary<System.string,System.Integer>.Rehash
 0001:0001652C       SQLiteTable3.{System.Generics.Collections}TDictionary<System.string,System.Integer>.RehashAdd
 0001:00016C60       SQLiteTable3.{System.Generics.Collections}TDictionary<System.string,System.Integer>.Remove
 0001:00016164       SQLiteTable3.{System.Generics.Collections}TDictionary<System.string,System.Integer>.SetCapacity
 0001:0001649C       SQLiteTable3.{System.Generics.Collections}TDictionary<System.string,System.Integer>.SetItem
 0001:0001729C       SQLiteTable3.{System.Generics.Collections}TDictionary<System.string,System.Integer>.TKeyCollection.Create
 0001:00017280       SQLiteTable3.{System.Generics.Collections}TDictionary<System.string,System.Integer>.TKeyCollection.DoGetEnumerator
 0001:00017264       SQLiteTable3.{System.Generics.Collections}TDictionary<System.string,System.Integer>.TKeyCollection.GetCount
 0001:000172EC       SQLiteTable3.{System.Generics.Collections}TDictionary<System.string,System.Integer>.TKeyCollection.GetEnumerator
 0001:00017314       SQLiteTable3.{System.Generics.Collections}TDictionary<System.string,System.Integer>.TKeyCollection.ToArray
 0001:000173A0       SQLiteTable3.{System.Generics.Collections}TDictionary<System.string,System.Integer>.TKeyEnumerator.Create
 0001:00017368       SQLiteTable3.{System.Generics.Collections}TDictionary<System.string,System.Integer>.TKeyEnumerator.DoGetCurrent
 0001:00017384       SQLiteTable3.{System.Generics.Collections}TDictionary<System.string,System.Integer>.TKeyEnumerator.DoMoveNext
 0001:00017338       SQLiteTable3.{System.Generics.Collections}TDictionary<System.string,System.Integer>.TKeyEnumerator.GetCurrent
 0001:000173F8       SQLiteTable3.{System.Generics.Collections}TDictionary<System.string,System.Integer>.TKeyEnumerator.MoveNext
 0001:00016FB0       SQLiteTable3.{System.Generics.Collections}TDictionary<System.string,System.Integer>.ToArray
 0001:00017848       SQLiteTable3.{System.Generics.Collections}TDictionary<System.string,System.Integer>.TPairEnumerator.Create
 0001:00017810       SQLiteTable3.{System.Generics.Collections}TDictionary<System.string,System.Integer>.TPairEnumerator.DoGetCurrent
 0001:0001782C       SQLiteTable3.{System.Generics.Collections}TDictionary<System.string,System.Integer>.TPairEnumerator.DoMoveNext
 0001:000177C4       SQLiteTable3.{System.Generics.Collections}TDictionary<System.string,System.Integer>.TPairEnumerator.GetCurrent
 0001:000178A0       SQLiteTable3.{System.Generics.Collections}TDictionary<System.string,System.Integer>.TPairEnumerator.MoveNext
 0001:00016DDC       SQLiteTable3.{System.Generics.Collections}TDictionary<System.string,System.Integer>.TrimExcess
 0001:00016DF8       SQLiteTable3.{System.Generics.Collections}TDictionary<System.string,System.Integer>.TryGetValue
 0001:00017618       SQLiteTable3.{System.Generics.Collections}TDictionary<System.string,System.Integer>.TValueCollection.Create
 0001:000175FC       SQLiteTable3.{System.Generics.Collections}TDictionary<System.string,System.Integer>.TValueCollection.DoGetEnumerator
 0001:000175E0       SQLiteTable3.{System.Generics.Collections}TDictionary<System.string,System.Integer>.TValueCollection.GetCount
 0001:00017668       SQLiteTable3.{System.Generics.Collections}TDictionary<System.string,System.Integer>.TValueCollection.GetEnumerator
 0001:00017690       SQLiteTable3.{System.Generics.Collections}TDictionary<System.string,System.Integer>.TValueCollection.ToArray
 0001:00017718       SQLiteTable3.{System.Generics.Collections}TDictionary<System.string,System.Integer>.TValueEnumerator.Create
 0001:000176E0       SQLiteTable3.{System.Generics.Collections}TDictionary<System.string,System.Integer>.TValueEnumerator.DoGetCurrent
 0001:000176FC       SQLiteTable3.{System.Generics.Collections}TDictionary<System.string,System.Integer>.TValueEnumerator.DoMoveNext
 0001:000176B4       SQLiteTable3.{System.Generics.Collections}TDictionary<System.string,System.Integer>.TValueEnumerator.GetCurrent
 0001:00017770       SQLiteTable3.{System.Generics.Collections}TDictionary<System.string,System.Integer>.TValueEnumerator.MoveNext
 0001:00016810       SQLiteTable3.{System.Generics.Collections}TDictionary<System.string,System.Integer>.ValueNotify
 0001:00014DB0       SQLiteTable3.{System.Generics.Collections}TEnumerable<SQLiteTable3.PSQLiteFuncs>.GetEnumerator
 0001:00014DCC       SQLiteTable3.{System.Generics.Collections}TEnumerable<SQLiteTable3.PSQLiteFuncs>.ToArray
 0001:00014D10       SQLiteTable3.{System.Generics.Collections}TEnumerable<SQLiteTable3.PSQLiteFuncs>.ToArrayImpl
 0001:00016030       SQLiteTable3.{System.Generics.Collections}TEnumerable<SQLiteTable3.TPair<System.string,System.Integer>>.GetEnumerator
 0001:0001604C       SQLiteTable3.{System.Generics.Collections}TEnumerable<SQLiteTable3.TPair<System.string,System.Integer>>.ToArray
 0001:00015F48       SQLiteTable3.{System.Generics.Collections}TEnumerable<SQLiteTable3.TPair<System.string,System.Integer>>.ToArrayImpl
 0001:00018CD0       SQLiteTable3.{System.Generics.Collections}TEnumerable<SQLiteTable3.TSQLiteField>.GetEnumerator
 0001:00018CEC       SQLiteTable3.{System.Generics.Collections}TEnumerable<SQLiteTable3.TSQLiteField>.ToArray
 0001:00018C30       SQLiteTable3.{System.Generics.Collections}TEnumerable<SQLiteTable3.TSQLiteField>.ToArrayImpl
 0001:00017994       SQLiteTable3.{System.Generics.Collections}TEnumerable<SQLiteTable3.TSQliteParam>.GetEnumerator
 0001:000179B0       SQLiteTable3.{System.Generics.Collections}TEnumerable<SQLiteTable3.TSQliteParam>.ToArray
 0001:000178F4       SQLiteTable3.{System.Generics.Collections}TEnumerable<SQLiteTable3.TSQliteParam>.ToArrayImpl
 0001:000174EC       SQLiteTable3.{System.Generics.Collections}TEnumerable<System.Integer>.GetEnumerator
 0001:00017508       SQLiteTable3.{System.Generics.Collections}TEnumerable<System.Integer>.ToArray
 0001:0001744C       SQLiteTable3.{System.Generics.Collections}TEnumerable<System.Integer>.ToArrayImpl
 0001:00017140       SQLiteTable3.{System.Generics.Collections}TEnumerable<System.string>.GetEnumerator
 0001:0001715C       SQLiteTable3.{System.Generics.Collections}TEnumerable<System.string>.ToArray
 0001:00017068       SQLiteTable3.{System.Generics.Collections}TEnumerable<System.string>.ToArrayImpl
 0001:00014E88       SQLiteTable3.{System.Generics.Collections}TEnumerator<SQLiteTable3.PSQLiteFuncs>.MoveNext
 0001:00016148       SQLiteTable3.{System.Generics.Collections}TEnumerator<SQLiteTable3.TPair<System.string,System.Integer>>.MoveNext
 0001:00018DA8       SQLiteTable3.{System.Generics.Collections}TEnumerator<SQLiteTable3.TSQLiteField>.MoveNext
 0001:00017A6C       SQLiteTable3.{System.Generics.Collections}TEnumerator<SQLiteTable3.TSQliteParam>.MoveNext
 0001:000175C4       SQLiteTable3.{System.Generics.Collections}TEnumerator<System.Integer>.MoveNext
 0001:00017248       SQLiteTable3.{System.Generics.Collections}TEnumerator<System.string>.MoveNext
 0001:000153E0       SQLiteTable3.{System.Generics.Collections}TList<SQLiteTable3.PSQLiteFuncs>.Add
 0001:0001545C       SQLiteTable3.{System.Generics.Collections}TList<SQLiteTable3.PSQLiteFuncs>.AddRange
 0001:00015434       SQLiteTable3.{System.Generics.Collections}TList<SQLiteTable3.PSQLiteFuncs>.AddRange
 0001:00015480       SQLiteTable3.{System.Generics.Collections}TList<SQLiteTable3.PSQLiteFuncs>.AddRange
 0001:00015CE8       SQLiteTable3.{System.Generics.Collections}TList<SQLiteTable3.PSQLiteFuncs>.BinarySearch
 0001:00015D38       SQLiteTable3.{System.Generics.Collections}TList<SQLiteTable3.PSQLiteFuncs>.BinarySearch
 0001:00015B08       SQLiteTable3.{System.Generics.Collections}TList<SQLiteTable3.PSQLiteFuncs>.Clear
 0001:00015B28       SQLiteTable3.{System.Generics.Collections}TList<SQLiteTable3.PSQLiteFuncs>.Contains
 0001:000151D8       SQLiteTable3.{System.Generics.Collections}TList<SQLiteTable3.PSQLiteFuncs>.Create
 0001:0001525C       SQLiteTable3.{System.Generics.Collections}TList<SQLiteTable3.PSQLiteFuncs>.Create
 0001:00015304       SQLiteTable3.{System.Generics.Collections}TList<SQLiteTable3.PSQLiteFuncs>.Create
 0001:000157AC       SQLiteTable3.{System.Generics.Collections}TList<SQLiteTable3.PSQLiteFuncs>.Delete
 0001:000157CC       SQLiteTable3.{System.Generics.Collections}TList<SQLiteTable3.PSQLiteFuncs>.DeleteRange
 0001:000153A4       SQLiteTable3.{System.Generics.Collections}TList<SQLiteTable3.PSQLiteFuncs>.Destroy
 0001:000150C8       SQLiteTable3.{System.Generics.Collections}TList<SQLiteTable3.PSQLiteFuncs>.DoDelete
 0001:00015188       SQLiteTable3.{System.Generics.Collections}TList<SQLiteTable3.PSQLiteFuncs>.DoGetEnumerator
 0001:00015990       SQLiteTable3.{System.Generics.Collections}TList<SQLiteTable3.PSQLiteFuncs>.Exchange
 0001:00015944       SQLiteTable3.{System.Generics.Collections}TList<SQLiteTable3.PSQLiteFuncs>.Extract
 0001:00015AC4       SQLiteTable3.{System.Generics.Collections}TList<SQLiteTable3.PSQLiteFuncs>.First
 0001:00014EA4       SQLiteTable3.{System.Generics.Collections}TList<SQLiteTable3.PSQLiteFuncs>.GetCapacity
 0001:00015E04       SQLiteTable3.{System.Generics.Collections}TList<SQLiteTable3.PSQLiteFuncs>.GetEnumerator
 0001:00014F78       SQLiteTable3.{System.Generics.Collections}TList<SQLiteTable3.PSQLiteFuncs>.GetItem
 0001:0001503C       SQLiteTable3.{System.Generics.Collections}TList<SQLiteTable3.PSQLiteFuncs>.Grow
 0001:00015090       SQLiteTable3.{System.Generics.Collections}TList<SQLiteTable3.PSQLiteFuncs>.GrowCheck
 0001:00015B4C       SQLiteTable3.{System.Generics.Collections}TList<SQLiteTable3.PSQLiteFuncs>.IndexOf
 0001:000154A4       SQLiteTable3.{System.Generics.Collections}TList<SQLiteTable3.PSQLiteFuncs>.Insert
 0001:000156F8       SQLiteTable3.{System.Generics.Collections}TList<SQLiteTable3.PSQLiteFuncs>.InsertRange
 0001:00015564       SQLiteTable3.{System.Generics.Collections}TList<SQLiteTable3.PSQLiteFuncs>.InsertRange
 0001:00015674       SQLiteTable3.{System.Generics.Collections}TList<SQLiteTable3.PSQLiteFuncs>.InsertRange
 0001:00015AE4       SQLiteTable3.{System.Generics.Collections}TList<SQLiteTable3.PSQLiteFuncs>.Last
 0001:00015BAC       SQLiteTable3.{System.Generics.Collections}TList<SQLiteTable3.PSQLiteFuncs>.LastIndexOf
 0001:000159DC       SQLiteTable3.{System.Generics.Collections}TList<SQLiteTable3.PSQLiteFuncs>.Move
 0001:000151A4       SQLiteTable3.{System.Generics.Collections}TList<SQLiteTable3.PSQLiteFuncs>.Notify
 0001:00015778       SQLiteTable3.{System.Generics.Collections}TList<SQLiteTable3.PSQLiteFuncs>.Remove
 0001:00015C08       SQLiteTable3.{System.Generics.Collections}TList<SQLiteTable3.PSQLiteFuncs>.Reverse
 0001:00014EC4       SQLiteTable3.{System.Generics.Collections}TList<SQLiteTable3.PSQLiteFuncs>.SetCapacity
 0001:00014F08       SQLiteTable3.{System.Generics.Collections}TList<SQLiteTable3.PSQLiteFuncs>.SetCount
 0001:00014FC4       SQLiteTable3.{System.Generics.Collections}TList<SQLiteTable3.PSQLiteFuncs>.SetItem
 0001:00015C70       SQLiteTable3.{System.Generics.Collections}TList<SQLiteTable3.PSQLiteFuncs>.Sort
 0001:00015CAC       SQLiteTable3.{System.Generics.Collections}TList<SQLiteTable3.PSQLiteFuncs>.Sort
 0001:00015E84       SQLiteTable3.{System.Generics.Collections}TList<SQLiteTable3.PSQLiteFuncs>.TEnumerator.Create
 0001:00015E4C       SQLiteTable3.{System.Generics.Collections}TList<SQLiteTable3.PSQLiteFuncs>.TEnumerator.DoGetCurrent
 0001:00015E68       SQLiteTable3.{System.Generics.Collections}TList<SQLiteTable3.PSQLiteFuncs>.TEnumerator.DoMoveNext
 0001:00015E28       SQLiteTable3.{System.Generics.Collections}TList<SQLiteTable3.PSQLiteFuncs>.TEnumerator.GetCurrent
 0001:00015EDC       SQLiteTable3.{System.Generics.Collections}TList<SQLiteTable3.PSQLiteFuncs>.TEnumerator.MoveNext
 0001:00015DA0       SQLiteTable3.{System.Generics.Collections}TList<SQLiteTable3.PSQLiteFuncs>.ToArray
 0001:00015D88       SQLiteTable3.{System.Generics.Collections}TList<SQLiteTable3.PSQLiteFuncs>.TrimExcess
 0001:0001A730       SQLiteTable3.{System.Generics.Collections}TList<SQLiteTable3.TPair<System.string,System.Integer>>.Add
 0001:0001A7B8       SQLiteTable3.{System.Generics.Collections}TList<SQLiteTable3.TPair<System.string,System.Integer>>.AddRange
 0001:0001A790       SQLiteTable3.{System.Generics.Collections}TList<SQLiteTable3.TPair<System.string,System.Integer>>.AddRange
 0001:0001A7DC       SQLiteTable3.{System.Generics.Collections}TList<SQLiteTable3.TPair<System.string,System.Integer>>.AddRange
 0001:0001B244       SQLiteTable3.{System.Generics.Collections}TList<SQLiteTable3.TPair<System.string,System.Integer>>.BinarySearch
 0001:0001B1F4       SQLiteTable3.{System.Generics.Collections}TList<SQLiteTable3.TPair<System.string,System.Integer>>.BinarySearch
 0001:0001AFB4       SQLiteTable3.{System.Generics.Collections}TList<SQLiteTable3.TPair<System.string,System.Integer>>.Clear
 0001:0001AFD4       SQLiteTable3.{System.Generics.Collections}TList<SQLiteTable3.TPair<System.string,System.Integer>>.Contains
 0001:0001A528       SQLiteTable3.{System.Generics.Collections}TList<SQLiteTable3.TPair<System.string,System.Integer>>.Create
 0001:0001A5AC       SQLiteTable3.{System.Generics.Collections}TList<SQLiteTable3.TPair<System.string,System.Integer>>.Create
 0001:0001A654       SQLiteTable3.{System.Generics.Collections}TList<SQLiteTable3.TPair<System.string,System.Integer>>.Create
 0001:0001AB78       SQLiteTable3.{System.Generics.Collections}TList<SQLiteTable3.TPair<System.string,System.Integer>>.Delete
 0001:0001AB98       SQLiteTable3.{System.Generics.Collections}TList<SQLiteTable3.TPair<System.string,System.Integer>>.DeleteRange
 0001:0001A6F4       SQLiteTable3.{System.Generics.Collections}TList<SQLiteTable3.TPair<System.string,System.Integer>>.Destroy
 0001:0001A3BC       SQLiteTable3.{System.Generics.Collections}TList<SQLiteTable3.TPair<System.string,System.Integer>>.DoDelete
 0001:0001A4D8       SQLiteTable3.{System.Generics.Collections}TList<SQLiteTable3.TPair<System.string,System.Integer>>.DoGetEnumerator
 0001:0001AD78       SQLiteTable3.{System.Generics.Collections}TList<SQLiteTable3.TPair<System.string,System.Integer>>.Exchange
 0001:0001AD10       SQLiteTable3.{System.Generics.Collections}TList<SQLiteTable3.TPair<System.string,System.Integer>>.Extract
 0001:0001AF70       SQLiteTable3.{System.Generics.Collections}TList<SQLiteTable3.TPair<System.string,System.Integer>>.First
 0001:0001A138       SQLiteTable3.{System.Generics.Collections}TList<SQLiteTable3.TPair<System.string,System.Integer>>.GetCapacity
 0001:0001B358       SQLiteTable3.{System.Generics.Collections}TList<SQLiteTable3.TPair<System.string,System.Integer>>.GetEnumerator
 0001:0001A20C       SQLiteTable3.{System.Generics.Collections}TList<SQLiteTable3.TPair<System.string,System.Integer>>.GetItem
 0001:0001A330       SQLiteTable3.{System.Generics.Collections}TList<SQLiteTable3.TPair<System.string,System.Integer>>.Grow
 0001:0001A384       SQLiteTable3.{System.Generics.Collections}TList<SQLiteTable3.TPair<System.string,System.Integer>>.GrowCheck
 0001:0001AFF8       SQLiteTable3.{System.Generics.Collections}TList<SQLiteTable3.TPair<System.string,System.Integer>>.IndexOf
 0001:0001A800       SQLiteTable3.{System.Generics.Collections}TList<SQLiteTable3.TPair<System.string,System.Integer>>.Insert
 0001:0001A8C8       SQLiteTable3.{System.Generics.Collections}TList<SQLiteTable3.TPair<System.string,System.Integer>>.InsertRange
 0001:0001A9E4       SQLiteTable3.{System.Generics.Collections}TList<SQLiteTable3.TPair<System.string,System.Integer>>.InsertRange
 0001:0001AA84       SQLiteTable3.{System.Generics.Collections}TList<SQLiteTable3.TPair<System.string,System.Integer>>.InsertRange
 0001:0001AF90       SQLiteTable3.{System.Generics.Collections}TList<SQLiteTable3.TPair<System.string,System.Integer>>.Last
 0001:0001B058       SQLiteTable3.{System.Generics.Collections}TList<SQLiteTable3.TPair<System.string,System.Integer>>.LastIndexOf
 0001:0001AE24       SQLiteTable3.{System.Generics.Collections}TList<SQLiteTable3.TPair<System.string,System.Integer>>.Move
 0001:0001A4F4       SQLiteTable3.{System.Generics.Collections}TList<SQLiteTable3.TPair<System.string,System.Integer>>.Notify
 0001:0001AB44       SQLiteTable3.{System.Generics.Collections}TList<SQLiteTable3.TPair<System.string,System.Integer>>.Remove
 0001:0001B0B4       SQLiteTable3.{System.Generics.Collections}TList<SQLiteTable3.TPair<System.string,System.Integer>>.Reverse
 0001:0001A158       SQLiteTable3.{System.Generics.Collections}TList<SQLiteTable3.TPair<System.string,System.Integer>>.SetCapacity
 0001:0001A19C       SQLiteTable3.{System.Generics.Collections}TList<SQLiteTable3.TPair<System.string,System.Integer>>.SetCount
 0001:0001A264       SQLiteTable3.{System.Generics.Collections}TList<SQLiteTable3.TPair<System.string,System.Integer>>.SetItem
 0001:0001B17C       SQLiteTable3.{System.Generics.Collections}TList<SQLiteTable3.TPair<System.string,System.Integer>>.Sort
 0001:0001B1B8       SQLiteTable3.{System.Generics.Collections}TList<SQLiteTable3.TPair<System.string,System.Integer>>.Sort
 0001:0001B3D8       SQLiteTable3.{System.Generics.Collections}TList<SQLiteTable3.TPair<System.string,System.Integer>>.TEnumerator.Create
 0001:0001B3A0       SQLiteTable3.{System.Generics.Collections}TList<SQLiteTable3.TPair<System.string,System.Integer>>.TEnumerator.DoGetCurrent
 0001:0001B3BC       SQLiteTable3.{System.Generics.Collections}TList<SQLiteTable3.TPair<System.string,System.Integer>>.TEnumerator.DoMoveNext
 0001:0001B37C       SQLiteTable3.{System.Generics.Collections}TList<SQLiteTable3.TPair<System.string,System.Integer>>.TEnumerator.GetCurrent
 0001:0001B430       SQLiteTable3.{System.Generics.Collections}TList<SQLiteTable3.TPair<System.string,System.Integer>>.TEnumerator.MoveNext
 0001:0001B2AC       SQLiteTable3.{System.Generics.Collections}TList<SQLiteTable3.TPair<System.string,System.Integer>>.ToArray
 0001:0001B294       SQLiteTable3.{System.Generics.Collections}TList<SQLiteTable3.TPair<System.string,System.Integer>>.TrimExcess
 0001:00019300       SQLiteTable3.{System.Generics.Collections}TList<SQLiteTable3.TSQLiteField>.Add
 0001:00019354       SQLiteTable3.{System.Generics.Collections}TList<SQLiteTable3.TSQLiteField>.AddRange
 0001:000193A0       SQLiteTable3.{System.Generics.Collections}TList<SQLiteTable3.TSQLiteField>.AddRange
 0001:0001937C       SQLiteTable3.{System.Generics.Collections}TList<SQLiteTable3.TSQLiteField>.AddRange
 0001:00019C58       SQLiteTable3.{System.Generics.Collections}TList<SQLiteTable3.TSQLiteField>.BinarySearch
 0001:00019C08       SQLiteTable3.{System.Generics.Collections}TList<SQLiteTable3.TSQLiteField>.BinarySearch
 0001:00019A28       SQLiteTable3.{System.Generics.Collections}TList<SQLiteTable3.TSQLiteField>.Clear
 0001:00019A48       SQLiteTable3.{System.Generics.Collections}TList<SQLiteTable3.TSQLiteField>.Contains
 0001:0001917C       SQLiteTable3.{System.Generics.Collections}TList<SQLiteTable3.TSQLiteField>.Create
 0001:000190F8       SQLiteTable3.{System.Generics.Collections}TList<SQLiteTable3.TSQLiteField>.Create
 0001:00019224       SQLiteTable3.{System.Generics.Collections}TList<SQLiteTable3.TSQLiteField>.Create
 0001:000196CC       SQLiteTable3.{System.Generics.Collections}TList<SQLiteTable3.TSQLiteField>.Delete
 0001:000196EC       SQLiteTable3.{System.Generics.Collections}TList<SQLiteTable3.TSQLiteField>.DeleteRange
 0001:000192C4       SQLiteTable3.{System.Generics.Collections}TList<SQLiteTable3.TSQLiteField>.Destroy
 0001:00018FE8       SQLiteTable3.{System.Generics.Collections}TList<SQLiteTable3.TSQLiteField>.DoDelete
 0001:000190A8       SQLiteTable3.{System.Generics.Collections}TList<SQLiteTable3.TSQLiteField>.DoGetEnumerator
 0001:000198B0       SQLiteTable3.{System.Generics.Collections}TList<SQLiteTable3.TSQLiteField>.Exchange
 0001:00019864       SQLiteTable3.{System.Generics.Collections}TList<SQLiteTable3.TSQLiteField>.Extract
 0001:000199E4       SQLiteTable3.{System.Generics.Collections}TList<SQLiteTable3.TSQLiteField>.First
 0001:00018DC4       SQLiteTable3.{System.Generics.Collections}TList<SQLiteTable3.TSQLiteField>.GetCapacity
 0001:00019D24       SQLiteTable3.{System.Generics.Collections}TList<SQLiteTable3.TSQLiteField>.GetEnumerator
 0001:00018E98       SQLiteTable3.{System.Generics.Collections}TList<SQLiteTable3.TSQLiteField>.GetItem
 0001:00018F5C       SQLiteTable3.{System.Generics.Collections}TList<SQLiteTable3.TSQLiteField>.Grow
 0001:00018FB0       SQLiteTable3.{System.Generics.Collections}TList<SQLiteTable3.TSQLiteField>.GrowCheck
 0001:00019A6C       SQLiteTable3.{System.Generics.Collections}TList<SQLiteTable3.TSQLiteField>.IndexOf
 0001:000193C4       SQLiteTable3.{System.Generics.Collections}TList<SQLiteTable3.TSQLiteField>.Insert
 0001:00019594       SQLiteTable3.{System.Generics.Collections}TList<SQLiteTable3.TSQLiteField>.InsertRange
 0001:00019484       SQLiteTable3.{System.Generics.Collections}TList<SQLiteTable3.TSQLiteField>.InsertRange
 0001:00019618       SQLiteTable3.{System.Generics.Collections}TList<SQLiteTable3.TSQLiteField>.InsertRange
 0001:00019A04       SQLiteTable3.{System.Generics.Collections}TList<SQLiteTable3.TSQLiteField>.Last
 0001:00019ACC       SQLiteTable3.{System.Generics.Collections}TList<SQLiteTable3.TSQLiteField>.LastIndexOf
 0001:000198FC       SQLiteTable3.{System.Generics.Collections}TList<SQLiteTable3.TSQLiteField>.Move
 0001:000190C4       SQLiteTable3.{System.Generics.Collections}TList<SQLiteTable3.TSQLiteField>.Notify
 0001:00019698       SQLiteTable3.{System.Generics.Collections}TList<SQLiteTable3.TSQLiteField>.Remove
 0001:00019B28       SQLiteTable3.{System.Generics.Collections}TList<SQLiteTable3.TSQLiteField>.Reverse
 0001:00018DE4       SQLiteTable3.{System.Generics.Collections}TList<SQLiteTable3.TSQLiteField>.SetCapacity
 0001:00018E28       SQLiteTable3.{System.Generics.Collections}TList<SQLiteTable3.TSQLiteField>.SetCount
 0001:00018EE4       SQLiteTable3.{System.Generics.Collections}TList<SQLiteTable3.TSQLiteField>.SetItem
 0001:00019B90       SQLiteTable3.{System.Generics.Collections}TList<SQLiteTable3.TSQLiteField>.Sort
 0001:00019BCC       SQLiteTable3.{System.Generics.Collections}TList<SQLiteTable3.TSQLiteField>.Sort
 0001:00019DA4       SQLiteTable3.{System.Generics.Collections}TList<SQLiteTable3.TSQLiteField>.TEnumerator.Create
 0001:00019D6C       SQLiteTable3.{System.Generics.Collections}TList<SQLiteTable3.TSQLiteField>.TEnumerator.DoGetCurrent
 0001:00019D88       SQLiteTable3.{System.Generics.Collections}TList<SQLiteTable3.TSQLiteField>.TEnumerator.DoMoveNext
 0001:00019D48       SQLiteTable3.{System.Generics.Collections}TList<SQLiteTable3.TSQLiteField>.TEnumerator.GetCurrent
 0001:00019DFC       SQLiteTable3.{System.Generics.Collections}TList<SQLiteTable3.TSQLiteField>.TEnumerator.MoveNext
 0001:00019CC0       SQLiteTable3.{System.Generics.Collections}TList<SQLiteTable3.TSQLiteField>.ToArray
 0001:00019CA8       SQLiteTable3.{System.Generics.Collections}TList<SQLiteTable3.TSQLiteField>.TrimExcess
 0001:00017FC4       SQLiteTable3.{System.Generics.Collections}TList<SQLiteTable3.TSQliteParam>.Add
 0001:00018064       SQLiteTable3.{System.Generics.Collections}TList<SQLiteTable3.TSQliteParam>.AddRange
 0001:00018018       SQLiteTable3.{System.Generics.Collections}TList<SQLiteTable3.TSQliteParam>.AddRange
 0001:00018040       SQLiteTable3.{System.Generics.Collections}TList<SQLiteTable3.TSQliteParam>.AddRange
 0001:0001891C       SQLiteTable3.{System.Generics.Collections}TList<SQLiteTable3.TSQliteParam>.BinarySearch
 0001:000188CC       SQLiteTable3.{System.Generics.Collections}TList<SQLiteTable3.TSQliteParam>.BinarySearch
 0001:000186EC       SQLiteTable3.{System.Generics.Collections}TList<SQLiteTable3.TSQliteParam>.Clear
 0001:0001870C       SQLiteTable3.{System.Generics.Collections}TList<SQLiteTable3.TSQliteParam>.Contains
 0001:00017E40       SQLiteTable3.{System.Generics.Collections}TList<SQLiteTable3.TSQliteParam>.Create
 0001:00017DBC       SQLiteTable3.{System.Generics.Collections}TList<SQLiteTable3.TSQliteParam>.Create
 0001:00017EE8       SQLiteTable3.{System.Generics.Collections}TList<SQLiteTable3.TSQliteParam>.Create
 0001:00018390       SQLiteTable3.{System.Generics.Collections}TList<SQLiteTable3.TSQliteParam>.Delete
 0001:000183B0       SQLiteTable3.{System.Generics.Collections}TList<SQLiteTable3.TSQliteParam>.DeleteRange
 0001:00017F88       SQLiteTable3.{System.Generics.Collections}TList<SQLiteTable3.TSQliteParam>.Destroy
 0001:00017CAC       SQLiteTable3.{System.Generics.Collections}TList<SQLiteTable3.TSQliteParam>.DoDelete
 0001:00017D6C       SQLiteTable3.{System.Generics.Collections}TList<SQLiteTable3.TSQliteParam>.DoGetEnumerator
 0001:00018574       SQLiteTable3.{System.Generics.Collections}TList<SQLiteTable3.TSQliteParam>.Exchange
 0001:00018528       SQLiteTable3.{System.Generics.Collections}TList<SQLiteTable3.TSQliteParam>.Extract
 0001:000186A8       SQLiteTable3.{System.Generics.Collections}TList<SQLiteTable3.TSQliteParam>.First
 0001:00017A88       SQLiteTable3.{System.Generics.Collections}TList<SQLiteTable3.TSQliteParam>.GetCapacity
 0001:000189E8       SQLiteTable3.{System.Generics.Collections}TList<SQLiteTable3.TSQliteParam>.GetEnumerator
 0001:00017B5C       SQLiteTable3.{System.Generics.Collections}TList<SQLiteTable3.TSQliteParam>.GetItem
 0001:00017C20       SQLiteTable3.{System.Generics.Collections}TList<SQLiteTable3.TSQliteParam>.Grow
 0001:00017C74       SQLiteTable3.{System.Generics.Collections}TList<SQLiteTable3.TSQliteParam>.GrowCheck
 0001:00018730       SQLiteTable3.{System.Generics.Collections}TList<SQLiteTable3.TSQliteParam>.IndexOf
 0001:00018088       SQLiteTable3.{System.Generics.Collections}TList<SQLiteTable3.TSQliteParam>.Insert
 0001:00018258       SQLiteTable3.{System.Generics.Collections}TList<SQLiteTable3.TSQliteParam>.InsertRange
 0001:00018148       SQLiteTable3.{System.Generics.Collections}TList<SQLiteTable3.TSQliteParam>.InsertRange
 0001:000182DC       SQLiteTable3.{System.Generics.Collections}TList<SQLiteTable3.TSQliteParam>.InsertRange
 0001:000186C8       SQLiteTable3.{System.Generics.Collections}TList<SQLiteTable3.TSQliteParam>.Last
 0001:00018790       SQLiteTable3.{System.Generics.Collections}TList<SQLiteTable3.TSQliteParam>.LastIndexOf
 0001:000185C0       SQLiteTable3.{System.Generics.Collections}TList<SQLiteTable3.TSQliteParam>.Move
 0001:00017D88       SQLiteTable3.{System.Generics.Collections}TList<SQLiteTable3.TSQliteParam>.Notify
 0001:0001835C       SQLiteTable3.{System.Generics.Collections}TList<SQLiteTable3.TSQliteParam>.Remove
 0001:000187EC       SQLiteTable3.{System.Generics.Collections}TList<SQLiteTable3.TSQliteParam>.Reverse
 0001:00017AA8       SQLiteTable3.{System.Generics.Collections}TList<SQLiteTable3.TSQliteParam>.SetCapacity
 0001:00017AEC       SQLiteTable3.{System.Generics.Collections}TList<SQLiteTable3.TSQliteParam>.SetCount
 0001:00017BA8       SQLiteTable3.{System.Generics.Collections}TList<SQLiteTable3.TSQliteParam>.SetItem
 0001:00018890       SQLiteTable3.{System.Generics.Collections}TList<SQLiteTable3.TSQliteParam>.Sort
 0001:00018854       SQLiteTable3.{System.Generics.Collections}TList<SQLiteTable3.TSQliteParam>.Sort
 0001:00018A68       SQLiteTable3.{System.Generics.Collections}TList<SQLiteTable3.TSQliteParam>.TEnumerator.Create
 0001:00018A30       SQLiteTable3.{System.Generics.Collections}TList<SQLiteTable3.TSQliteParam>.TEnumerator.DoGetCurrent
 0001:00018A4C       SQLiteTable3.{System.Generics.Collections}TList<SQLiteTable3.TSQliteParam>.TEnumerator.DoMoveNext
 0001:00018A0C       SQLiteTable3.{System.Generics.Collections}TList<SQLiteTable3.TSQliteParam>.TEnumerator.GetCurrent
 0001:00018AC0       SQLiteTable3.{System.Generics.Collections}TList<SQLiteTable3.TSQliteParam>.TEnumerator.MoveNext
 0001:00018984       SQLiteTable3.{System.Generics.Collections}TList<SQLiteTable3.TSQliteParam>.ToArray
 0001:0001896C       SQLiteTable3.{System.Generics.Collections}TList<SQLiteTable3.TSQliteParam>.TrimExcess
 0001:0001CC34       SQLiteTable3.{System.Generics.Collections}TList<System.Integer>.Add
 0001:0001CC88       SQLiteTable3.{System.Generics.Collections}TList<System.Integer>.AddRange
 0001:0001CCD4       SQLiteTable3.{System.Generics.Collections}TList<System.Integer>.AddRange
 0001:0001CCB0       SQLiteTable3.{System.Generics.Collections}TList<System.Integer>.AddRange
 0001:0001D58C       SQLiteTable3.{System.Generics.Collections}TList<System.Integer>.BinarySearch
 0001:0001D53C       SQLiteTable3.{System.Generics.Collections}TList<System.Integer>.BinarySearch
 0001:0001D35C       SQLiteTable3.{System.Generics.Collections}TList<System.Integer>.Clear
 0001:0001D37C       SQLiteTable3.{System.Generics.Collections}TList<System.Integer>.Contains
 0001:0001CB58       SQLiteTable3.{System.Generics.Collections}TList<System.Integer>.Create
 0001:0001CAB0       SQLiteTable3.{System.Generics.Collections}TList<System.Integer>.Create
 0001:0001CA2C       SQLiteTable3.{System.Generics.Collections}TList<System.Integer>.Create
 0001:0001D000       SQLiteTable3.{System.Generics.Collections}TList<System.Integer>.Delete
 0001:0001D020       SQLiteTable3.{System.Generics.Collections}TList<System.Integer>.DeleteRange
 0001:0001CBF8       SQLiteTable3.{System.Generics.Collections}TList<System.Integer>.Destroy
 0001:0001C91C       SQLiteTable3.{System.Generics.Collections}TList<System.Integer>.DoDelete
 0001:0001C9DC       SQLiteTable3.{System.Generics.Collections}TList<System.Integer>.DoGetEnumerator
 0001:0001D1E4       SQLiteTable3.{System.Generics.Collections}TList<System.Integer>.Exchange
 0001:0001D198       SQLiteTable3.{System.Generics.Collections}TList<System.Integer>.Extract
 0001:0001D318       SQLiteTable3.{System.Generics.Collections}TList<System.Integer>.First
 0001:0001C6F8       SQLiteTable3.{System.Generics.Collections}TList<System.Integer>.GetCapacity
 0001:0001D658       SQLiteTable3.{System.Generics.Collections}TList<System.Integer>.GetEnumerator
 0001:0001C7CC       SQLiteTable3.{System.Generics.Collections}TList<System.Integer>.GetItem
 0001:0001C890       SQLiteTable3.{System.Generics.Collections}TList<System.Integer>.Grow
 0001:0001C8E4       SQLiteTable3.{System.Generics.Collections}TList<System.Integer>.GrowCheck
 0001:0001D3A0       SQLiteTable3.{System.Generics.Collections}TList<System.Integer>.IndexOf
 0001:0001CCF8       SQLiteTable3.{System.Generics.Collections}TList<System.Integer>.Insert
 0001:0001CEC8       SQLiteTable3.{System.Generics.Collections}TList<System.Integer>.InsertRange
 0001:0001CDB8       SQLiteTable3.{System.Generics.Collections}TList<System.Integer>.InsertRange
 0001:0001CF4C       SQLiteTable3.{System.Generics.Collections}TList<System.Integer>.InsertRange
 0001:0001D338       SQLiteTable3.{System.Generics.Collections}TList<System.Integer>.Last
 0001:0001D400       SQLiteTable3.{System.Generics.Collections}TList<System.Integer>.LastIndexOf
 0001:0001D230       SQLiteTable3.{System.Generics.Collections}TList<System.Integer>.Move
 0001:0001C9F8       SQLiteTable3.{System.Generics.Collections}TList<System.Integer>.Notify
 0001:0001CFCC       SQLiteTable3.{System.Generics.Collections}TList<System.Integer>.Remove
 0001:0001D45C       SQLiteTable3.{System.Generics.Collections}TList<System.Integer>.Reverse
 0001:0001C718       SQLiteTable3.{System.Generics.Collections}TList<System.Integer>.SetCapacity
 0001:0001C75C       SQLiteTable3.{System.Generics.Collections}TList<System.Integer>.SetCount
 0001:0001C818       SQLiteTable3.{System.Generics.Collections}TList<System.Integer>.SetItem
 0001:0001D4C4       SQLiteTable3.{System.Generics.Collections}TList<System.Integer>.Sort
 0001:0001D500       SQLiteTable3.{System.Generics.Collections}TList<System.Integer>.Sort
 0001:0001D6D8       SQLiteTable3.{System.Generics.Collections}TList<System.Integer>.TEnumerator.Create
 0001:0001D6A0       SQLiteTable3.{System.Generics.Collections}TList<System.Integer>.TEnumerator.DoGetCurrent
 0001:0001D6BC       SQLiteTable3.{System.Generics.Collections}TList<System.Integer>.TEnumerator.DoMoveNext
 0001:0001D67C       SQLiteTable3.{System.Generics.Collections}TList<System.Integer>.TEnumerator.GetCurrent
 0001:0001D730       SQLiteTable3.{System.Generics.Collections}TList<System.Integer>.TEnumerator.MoveNext
 0001:0001D5F4       SQLiteTable3.{System.Generics.Collections}TList<System.Integer>.ToArray
 0001:0001D5DC       SQLiteTable3.{System.Generics.Collections}TList<System.Integer>.TrimExcess
 0001:0001BA70       SQLiteTable3.{System.Generics.Collections}TList<System.string>.Add
 0001:0001BAC8       SQLiteTable3.{System.Generics.Collections}TList<System.string>.AddRange
 0001:0001BAF0       SQLiteTable3.{System.Generics.Collections}TList<System.string>.AddRange
 0001:0001BB14       SQLiteTable3.{System.Generics.Collections}TList<System.string>.AddRange
 0001:0001C48C       SQLiteTable3.{System.Generics.Collections}TList<System.string>.BinarySearch
 0001:0001C4DC       SQLiteTable3.{System.Generics.Collections}TList<System.string>.BinarySearch
 0001:0001C26C       SQLiteTable3.{System.Generics.Collections}TList<System.string>.Clear
 0001:0001C28C       SQLiteTable3.{System.Generics.Collections}TList<System.string>.Contains
 0001:0001B994       SQLiteTable3.{System.Generics.Collections}TList<System.string>.Create
 0001:0001B8EC       SQLiteTable3.{System.Generics.Collections}TList<System.string>.Create
 0001:0001B868       SQLiteTable3.{System.Generics.Collections}TList<System.string>.Create
 0001:0001BE8C       SQLiteTable3.{System.Generics.Collections}TList<System.string>.Delete
 0001:0001BEAC       SQLiteTable3.{System.Generics.Collections}TList<System.string>.DeleteRange
 0001:0001BA34       SQLiteTable3.{System.Generics.Collections}TList<System.string>.Destroy
 0001:0001B720       SQLiteTable3.{System.Generics.Collections}TList<System.string>.DoDelete
 0001:0001B818       SQLiteTable3.{System.Generics.Collections}TList<System.string>.DoGetEnumerator
 0001:0001C078       SQLiteTable3.{System.Generics.Collections}TList<System.string>.Exchange
 0001:0001C024       SQLiteTable3.{System.Generics.Collections}TList<System.string>.Extract
 0001:0001C228       SQLiteTable3.{System.Generics.Collections}TList<System.string>.First
 0001:0001B4C0       SQLiteTable3.{System.Generics.Collections}TList<System.string>.GetCapacity
 0001:0001C5E0       SQLiteTable3.{System.Generics.Collections}TList<System.string>.GetEnumerator
 0001:0001B594       SQLiteTable3.{System.Generics.Collections}TList<System.string>.GetItem
 0001:0001B694       SQLiteTable3.{System.Generics.Collections}TList<System.string>.Grow
 0001:0001B6E8       SQLiteTable3.{System.Generics.Collections}TList<System.string>.GrowCheck
 0001:0001C2B0       SQLiteTable3.{System.Generics.Collections}TList<System.string>.IndexOf
 0001:0001BB38       SQLiteTable3.{System.Generics.Collections}TList<System.string>.Insert
 0001:0001BDA4       SQLiteTable3.{System.Generics.Collections}TList<System.string>.InsertRange
 0001:0001BBFC       SQLiteTable3.{System.Generics.Collections}TList<System.string>.InsertRange
 0001:0001BD14       SQLiteTable3.{System.Generics.Collections}TList<System.string>.InsertRange
 0001:0001C248       SQLiteTable3.{System.Generics.Collections}TList<System.string>.Last
 0001:0001C310       SQLiteTable3.{System.Generics.Collections}TList<System.string>.LastIndexOf
 0001:0001C104       SQLiteTable3.{System.Generics.Collections}TList<System.string>.Move
 0001:0001B834       SQLiteTable3.{System.Generics.Collections}TList<System.string>.Notify
 0001:0001BE58       SQLiteTable3.{System.Generics.Collections}TList<System.string>.Remove
 0001:0001C36C       SQLiteTable3.{System.Generics.Collections}TList<System.string>.Reverse
 0001:0001B4E0       SQLiteTable3.{System.Generics.Collections}TList<System.string>.SetCapacity
 0001:0001B524       SQLiteTable3.{System.Generics.Collections}TList<System.string>.SetCount
 0001:0001B5E4       SQLiteTable3.{System.Generics.Collections}TList<System.string>.SetItem
 0001:0001C414       SQLiteTable3.{System.Generics.Collections}TList<System.string>.Sort
 0001:0001C450       SQLiteTable3.{System.Generics.Collections}TList<System.string>.Sort
 0001:0001C660       SQLiteTable3.{System.Generics.Collections}TList<System.string>.TEnumerator.Create
 0001:0001C628       SQLiteTable3.{System.Generics.Collections}TList<System.string>.TEnumerator.DoGetCurrent
 0001:0001C644       SQLiteTable3.{System.Generics.Collections}TList<System.string>.TEnumerator.DoMoveNext
 0001:0001C604       SQLiteTable3.{System.Generics.Collections}TList<System.string>.TEnumerator.GetCurrent
 0001:0001C6B8       SQLiteTable3.{System.Generics.Collections}TList<System.string>.TEnumerator.MoveNext
 0001:0001C544       SQLiteTable3.{System.Generics.Collections}TList<System.string>.ToArray
 0001:0001C52C       SQLiteTable3.{System.Generics.Collections}TList<System.string>.TrimExcess
 0001:00019F18       SQLiteTable3.{System.Generics.Collections}TObjectList<SQLiteTable3.TSQLiteField>.Create
 0001:00019E74       SQLiteTable3.{System.Generics.Collections}TObjectList<SQLiteTable3.TSQLiteField>.Create
 0001:00019EC4       SQLiteTable3.{System.Generics.Collections}TObjectList<SQLiteTable3.TSQLiteField>.Create
 0001:00019E3C       SQLiteTable3.{System.Generics.Collections}TObjectList<SQLiteTable3.TSQLiteField>.Notify
 0001:00018B38       SQLiteTable3.{System.Generics.Collections}TObjectList<SQLiteTable3.TSQliteParam>.Create
 0001:00018BDC       SQLiteTable3.{System.Generics.Collections}TObjectList<SQLiteTable3.TSQliteParam>.Create
 0001:00018B88       SQLiteTable3.{System.Generics.Collections}TObjectList<SQLiteTable3.TSQliteParam>.Create
 0001:00018B00       SQLiteTable3.{System.Generics.Collections}TObjectList<SQLiteTable3.TSQliteParam>.Notify
 0001:00015F1C       SQLiteTable3.{System.Generics.Collections}TPair<System.string,System.Integer>.Create
 0001:0001EC48       SQLiteTable3.{System.Generics.Defaults}TComparer<SQLiteTable3.PSQLiteFuncs>.Compare
 0001:00019F98       SQLiteTable3.{System.Generics.Defaults}TComparer<SQLiteTable3.PSQLiteFuncs>.Construct
 0001:00019F6C       SQLiteTable3.{System.Generics.Defaults}TComparer<SQLiteTable3.PSQLiteFuncs>.Default
 0001:00021ED0       SQLiteTable3.{System.Generics.Defaults}TComparer<SQLiteTable3.TPair<System.string,System.Integer>>.Compare
 0001:0001DCB0       SQLiteTable3.{System.Generics.Defaults}TComparer<SQLiteTable3.TPair<System.string,System.Integer>>.Construct
 0001:0001DC84       SQLiteTable3.{System.Generics.Defaults}TComparer<SQLiteTable3.TPair<System.string,System.Integer>>.Default
 0001:00021A0C       SQLiteTable3.{System.Generics.Defaults}TComparer<SQLiteTable3.TSQLiteField>.Compare
 0001:0001D968       SQLiteTable3.{System.Generics.Defaults}TComparer<SQLiteTable3.TSQLiteField>.Construct
 0001:0001D93C       SQLiteTable3.{System.Generics.Defaults}TComparer<SQLiteTable3.TSQLiteField>.Default
 0001:00021720       SQLiteTable3.{System.Generics.Defaults}TComparer<SQLiteTable3.TSQliteParam>.Compare
 0001:0001D79C       SQLiteTable3.{System.Generics.Defaults}TComparer<SQLiteTable3.TSQliteParam>.Construct
 0001:0001D770       SQLiteTable3.{System.Generics.Defaults}TComparer<SQLiteTable3.TSQliteParam>.Default
 0001:00022490       SQLiteTable3.{System.Generics.Defaults}TComparer<System.Integer>.Compare
 0001:0001E048       SQLiteTable3.{System.Generics.Defaults}TComparer<System.Integer>.Construct
 0001:0001E01C       SQLiteTable3.{System.Generics.Defaults}TComparer<System.Integer>.Default
 0001:000221D0       SQLiteTable3.{System.Generics.Defaults}TComparer<System.string>.Compare
 0001:0001DE7C       SQLiteTable3.{System.Generics.Defaults}TComparer<System.string>.Construct
 0001:0001DE50       SQLiteTable3.{System.Generics.Defaults}TComparer<System.string>.Default
 0001:0001DB50       SQLiteTable3.{System.Generics.Defaults}TDelegatedComparer<SQLiteTable3.PSQLiteFuncs>.Compare
 0001:0001DB08       SQLiteTable3.{System.Generics.Defaults}TDelegatedComparer<SQLiteTable3.PSQLiteFuncs>.Create
 0001:0001E528       SQLiteTable3.{System.Generics.Defaults}TDelegatedComparer<SQLiteTable3.TPair<System.string,System.Integer>>.Compare
 0001:0001E4E0       SQLiteTable3.{System.Generics.Defaults}TDelegatedComparer<SQLiteTable3.TPair<System.string,System.Integer>>.Create
 0001:0001E3AC       SQLiteTable3.{System.Generics.Defaults}TDelegatedComparer<SQLiteTable3.TSQLiteField>.Compare
 0001:0001E364       SQLiteTable3.{System.Generics.Defaults}TDelegatedComparer<SQLiteTable3.TSQLiteField>.Create
 0001:0001E230       SQLiteTable3.{System.Generics.Defaults}TDelegatedComparer<SQLiteTable3.TSQliteParam>.Compare
 0001:0001E1E8       SQLiteTable3.{System.Generics.Defaults}TDelegatedComparer<SQLiteTable3.TSQliteParam>.Create
 0001:0001E8F4       SQLiteTable3.{System.Generics.Defaults}TDelegatedComparer<System.Integer>.Compare
 0001:0001E8AC       SQLiteTable3.{System.Generics.Defaults}TDelegatedComparer<System.Integer>.Create
 0001:0001E728       SQLiteTable3.{System.Generics.Defaults}TDelegatedComparer<System.string>.Compare
 0001:0001E6E0       SQLiteTable3.{System.Generics.Defaults}TDelegatedComparer<System.string>.Create
 0001:0001B498       SQLiteTable3.{System.Generics.Defaults}TEqualityComparer<System.Integer>.Default
 0001:0001B470       SQLiteTable3.{System.Generics.Defaults}TEqualityComparer<System.string>.Default
 0001:0000092C       SysInit...
 0001:0000096C       SysInit...
 0001:00000A34       SysInit...
 0001:00000A24       SysInit...
 0001:0000097C       SysInit...
 0001:00000A00       SysInit...
 0001:000009D8       SysInit...
 0001:00000990       SysInit...
 0001:000009C0       SysInit...
 0001:0000095C       SysInit...
 0001:0000094C       SysInit...
 0003:00000034       SysInit...
 0001:0000093C       SysInit...
 0004:00000014       SysInit..1
 0001:00000400       SysInit.@InitPkg
 0001:00000464       SysInit.@PackageLoad
 0001:00000470       SysInit.@PackageUnload
 0001:0000047C       SysInit.@_delayLoadHelper2
 0001:0000075C       SysInit.@_FUnloadDelayLoadedDLL2
 0001:0000086C       SysInit.@_HrLoadAllImportsForDll
 0004:00000010       SysInit.@_pfnDliFailureHook2
 0004:0000000C       SysInit.@_pfnDliNotifyHook2
 0001:000002F0       SysInit.AllocTlsBuffer
 0001:000003AC       SysInit.ExitProcessTLS
 0001:00000374       SysInit.ExitThreadTLS
 0001:00000A44       SysInit.Finalization
 0001:00000298       SysInit.FreeLibrary
 0001:000002D0       SysInit.GetLastError
 0001:000002E8       SysInit.GetProcAddress
 0001:000002FC       SysInit.GetTlsSize
 0004:00000004       SysInit.HInstance
 0001:000003D0       SysInit.InitializeModule
 0001:00000348       SysInit.InitProcessTLS
 0001:00000304       SysInit.InitThreadTLS
 0001:00000288       SysInit.InterlockedExchange
 0001:000002D8       SysInit.LoadLibraryA
 0001:000002A0       SysInit.LocalAlloc
 0001:000002A8       SysInit.LocalFree
 0003:00000008       SysInit.Module
 0004:00000000       SysInit.ModuleIsLib
 0004:00000001       SysInit.ModuleIsPackage
 0003:00000004       SysInit.PtrToNil
 0001:000002E0       SysInit.RaiseException
 0001:00000924       SysInit.ShutdownDelayHelp2
 0002:00000008       SysInit.SysInit
 0001:000002B0       SysInit.TlsAlloc
 0004:00000018       SysInit.tlsBuffer
 0001:000002B8       SysInit.TlsFree
 0001:000002C0       SysInit.TlsGetValue
 0003:00000000       SysInit.TlsIndex
 0005:00000000       SysInit.TlsLast
 0003:00000024       SysInit.TlsProc
 0001:000002C8       SysInit.TlsSetValue
 0001:000003DC       SysInit.UninitializeModule
 0004:FFFD4000       SysInit.__ImageBase
 0001:00000020       System.@AbstractError
 0001:000001C8       System.@AddRefRecord
 0001:000000B0       System.@AfterConstruction
 0001:000000F8       System.@Assert
 0001:000000B8       System.@BeforeDestruction
 0001:000000A0       System.@ClassCreate
 0001:000000A8       System.@ClassDestroy
 0001:000001D0       System.@CopyRecord
 0001:000001E0       System.@Dispose
 0001:000000D8       System.@DoneExcept
 0001:00000208       System.@DynArrayAsg
 0001:00000200       System.@DynArrayClear
 0001:000001F0       System.@DynArrayHigh
 0001:000001E8       System.@DynArrayLength
 0001:000001F8       System.@DynArraySetLength
 0001:00000028       System.@FillChar
 0001:000001C0       System.@FinalizeArray
 0001:000001B8       System.@FinalizeRecord
 0001:00000008       System.@FreeMem
 0001:00000000       System.@GetMem
 0001:000000C0       System.@HandleAnyException
 0001:000000C8       System.@HandleFinally
 0001:000001B0       System.@InitializeRecord
 0001:00000230       System.@IntfAddRef
 0001:00000220       System.@IntfClear
 0001:00000228       System.@IntfCopy
 0001:00000068       System.@IsClass
 0001:00000118       System.@LStrArrayClr
 0001:00000108       System.@LStrClr
 0001:00000150       System.@LStrFromPChar
 0001:00000158       System.@LStrFromPWChar
 0001:00000168       System.@LStrFromUStr
 0001:00000148       System.@LStrLen
 0001:00000160       System.@LStrToPChar
 0001:000001D8       System.@New
 0001:000000E0       System.@PackageLoad
 0001:000000E8       System.@PackageUnload
 0001:000000D0       System.@RaiseExcept
 0001:000000F0       System.@RunError
 0001:00000018       System.@TRUNC
 0001:00000120       System.@UStrAddRef
 0001:00000110       System.@UStrArrayClr
 0001:00000130       System.@UStrAsg
 0001:00000188       System.@UStrCat3
 0001:00000190       System.@UStrCatN
 0001:00000100       System.@UStrClr
 0001:000001A0       System.@UStrCopy
 0001:00000198       System.@UStrEqual
 0001:00000178       System.@UStrFromPWChar
 0001:00000128       System.@UStrFromPWCharLen
 0001:00000180       System.@UStrFromWStr
 0001:00000138       System.@UStrLAsg
 0001:00000140       System.@UStrLen
 0001:00000170       System.@UStrToPWChar
 0001:00000280       System.Finalization
 0001:00000010       System.Move
 0001:000001A8       System.Pos
 0001:00000210       System.RegisterModule
 0002:00000000       System.System
 0001:00000238       System.TInterfacedObject.AfterConstruction
 0001:00000240       System.TInterfacedObject.BeforeDestruction
 0001:00000248       System.TInterfacedObject.NewInstance
 0001:00000250       System.TInterfacedObject.QueryInterface
 0001:00000258       System.TInterfacedObject._AddRef
 0001:00000260       System.TInterfacedObject._Release
 0001:00000088       System.TObject.AfterConstruction
 0001:00000090       System.TObject.BeforeDestruction
 0001:00000040       System.TObject.Create
 0001:00000080       System.TObject.DefaultHandler
 0001:00000048       System.TObject.Destroy
 0001:00000098       System.TObject.Dispatch
 0001:00000058       System.TObject.Equals
 0001:00000050       System.TObject.Free
 0001:00000038       System.TObject.FreeInstance
 0001:00000060       System.TObject.GetHashCode
 0001:00000030       System.TObject.NewInstance
 0001:00000070       System.TObject.SafeCallException
 0001:00000078       System.TObject.ToString
 0001:00000218       System.UnregisterModule
 0001:00000268       System.UTF8Encode
 0001:00000270       System.UTF8ToString
 0001:00000278       System.UTF8ToString
 0001:00000EB4       System.Classes.Finalization
 0001:00000D94       System.Classes.RegisterComponents
 0002:00000090       System.Classes.System.Classes
 0002:00000078       System.Classes.TBinaryWriter.Create@
 0001:00000E9C       System.Classes.TBinaryWriter.Destroy@
 0001:00000DBC       System.Classes.TCollection.Clear
 0001:00000DC4       System.Classes.TCollection.GetCount
 0001:00000E24       System.Classes.TComponent.BeforeDestruction
 0001:00000E74       System.Classes.TComponent.CanObserve
 0001:00000E14       System.Classes.TComponent.Create
 0001:00000E34       System.Classes.TComponent.DefineProperties
 0001:00000E1C       System.Classes.TComponent.Destroy
 0001:00000E64       System.Classes.TComponent.GetObservers
 0001:00000E3C       System.Classes.TComponent.Loaded
 0001:00000E2C       System.Classes.TComponent.Notification
 0001:00000E7C       System.Classes.TComponent.ObserverAdded
 0001:00000E94       System.Classes.TComponent.QueryInterface
 0001:00000E44       System.Classes.TComponent.ReadState
 0001:00000E84       System.Classes.TComponent.SafeCallException
 0001:00000E5C       System.Classes.TComponent.SetName
 0001:00000E6C       System.Classes.TComponent.UpdateAction
 0001:00000E8C       System.Classes.TComponent.UpdateRegistry
 0001:00000E54       System.Classes.TComponent.ValidateRename
 0001:00000E4C       System.Classes.TComponent.WriteState
 0001:00000D9C       System.Classes.TList.Add
 0001:00000DA4       System.Classes.TList.Get
 0002:00000088       System.Classes.TLoginCredentialService.Create@
 0001:00000EA4       System.Classes.TLoginCredentialService.Destroy@
 0001:00000DF4       System.Classes.TMemoryStream.LoadFromStream
 0002:00000070       System.Classes.TObserverMapping.Create@
 0001:00000EAC       System.Classes.TObserverMapping.Destroy@
 0001:00000DAC       System.Classes.TPersistent.Assign
 0001:00000DB4       System.Classes.TPersistent.AssignTo
 0001:00000DE4       System.Classes.TStream.SetPosition
 0001:00000DEC       System.Classes.TStream.WriteBuffer
 0001:00000DDC       System.Classes.TStringList.Create
 0001:00000DCC       System.Classes.TStrings.BeginUpdate
 0001:00000DD4       System.Classes.TStrings.EndUpdate
 0001:00000DFC       System.Classes.TStringStream.Create
 0001:00000E04       System.Classes.TStringStream.ReadString
 0002:00000080       System.Classes.TThread.Create@
 0001:00000E0C       System.Classes.TThread.Destroy@
 0002:000000EC       System.DateUtils.TTimeZone.Create@
 0001:00003AB4       System.DateUtils.TTimeZone.Destroy@
 0001:00003AAC       System.Generics.Collections.InCircularRange
 0001:00003AA4       System.Generics.Defaults._LookupVtableInfo
 0001:00000B4C       System.Internal.ExcUtils.Finalization
 0002:00000028       System.Internal.ExcUtils.System.Internal.ExcUtils
 0001:00003A84       System.Math.Finalization
 0002:000000D4       System.Math.System.Math
 0001:00003E54       System.Rtti.Finalization
 0002:0000010C       System.Rtti.System.Rtti
 0001:00003A9C       System.StrUtils.PosEx
 0001:00003A94       System.SyncObjs.Finalization
 0002:000000E4       System.SyncObjs.System.SyncObjs
 0001:00000B74       System.SysUtils.AnsiUpperCase
 0001:00000BBC       System.SysUtils.DateTimeToStr
 0001:00000BB4       System.SysUtils.DateToStr
 0001:00000BE4       System.SysUtils.Exception.Create
 0002:00000040       System.SysUtils.Exception.Create@
 0001:00000BEC       System.SysUtils.Exception.CreateFmt
 0001:00000BF4       System.SysUtils.Exception.CreateRes
 0001:00000BFC       System.SysUtils.Exception.Destroy
 0001:00000C1C       System.SysUtils.Exception.Destroy@
 0001:00000C04       System.SysUtils.Exception.GetBaseException
 0001:00000C0C       System.SysUtils.Exception.RaisingException
 0001:00000C14       System.SysUtils.Exception.ToString
 0001:00000C44       System.SysUtils.Finalization
 0001:00000BA4       System.SysUtils.FloatToStr
 0001:00000B9C       System.SysUtils.Format
 0001:00000C24       System.SysUtils.FreeAndNil
 0001:00000B7C       System.SysUtils.IntToStr
 0001:00000B84       System.SysUtils.IntToStr
 0001:00000B64       System.SysUtils.LowerCase
 0001:00000BDC       System.SysUtils.OutOfMemoryError
 0001:00000B6C       System.SysUtils.SameText
 0001:00000B94       System.SysUtils.StrLen
 0001:00000BAC       System.SysUtils.StrToFloat
 0001:00000B8C       System.SysUtils.StrToInt
 0002:00000050       System.SysUtils.System.SysUtils
 0002:00000038       System.SysUtils.TEncoding.Create@
 0001:00000C34       System.SysUtils.TEncoding.Destroy@
 0001:00000C3C       System.SysUtils.TEncoding.GetUTF8
 0001:00000BD4       System.SysUtils.TFormatSettings.Create
 0002:00000030       System.SysUtils.TLanguages.Create@
 0001:00000C2C       System.SysUtils.TLanguages.Destroy@
 0002:00000048       System.SysUtils.TOSVersion.Create@
 0001:00000B54       System.SysUtils.TOSVersion.Destroy@
 0001:00000BC4       System.SysUtils.TryStrToDate
 0001:00000BCC       System.SysUtils.TryStrToDateTime
 0001:00000B5C       System.SysUtils.UpperCase
 0002:000000DC       System.TimeSpan.TTimeSpan.Create@
 0001:00003A8C       System.TimeSpan.TTimeSpan.Destroy@
 0001:00000D8C       System.TypInfo.Finalization
 0002:00000068       System.TypInfo.System.TypInfo
 0001:00000C54       System.Variants.@VarClear
 0001:00000C5C       System.Variants.@VarClr
 0001:00000C64       System.Variants.@VarCopy
 0001:00000C84       System.Variants.@VarFromInt64
 0001:00000C8C       System.Variants.@VarFromReal
 0001:00000C94       System.Variants.@VarFromTDateTime
 0001:00000C9C       System.Variants.@VarFromUStr
 0001:00000C6C       System.Variants.@VarToInt64
 0001:00000C74       System.Variants.@VarToReal
 0001:00000C7C       System.Variants.@VarToUStr
 0001:00000D84       System.Variants.Finalization
 0002:00000060       System.Variants.System.Variants
 0001:00000CDC       System.Variants.TCustomVariantType.BinaryOp
 0001:00000CE4       System.Variants.TCustomVariantType.Cast
 0001:00000CEC       System.Variants.TCustomVariantType.CastTo
 0001:00000D04       System.Variants.TCustomVariantType.CastToOle
 0001:00000CF4       System.Variants.TCustomVariantType.Compare
 0001:00000CFC       System.Variants.TCustomVariantType.CompareOp
 0001:00000D0C       System.Variants.TCustomVariantType.Create
 0001:00000D14       System.Variants.TCustomVariantType.Destroy
 0001:00000D1C       System.Variants.TCustomVariantType.IsClear
 0001:00000D24       System.Variants.TCustomVariantType.LeftPromotion
 0001:00000D2C       System.Variants.TCustomVariantType.OlePromotion
 0001:00000D54       System.Variants.TCustomVariantType.QueryInterface
 0001:00000D34       System.Variants.TCustomVariantType.RightPromotion
 0001:00000D3C       System.Variants.TCustomVariantType.SimplisticClear
 0001:00000D44       System.Variants.TCustomVariantType.SimplisticCopy
 0001:00000D4C       System.Variants.TCustomVariantType.UnaryOp
 0001:00000D64       System.Variants.TInvokeableVariantType.DispInvoke
 0001:00000D6C       System.Variants.TInvokeableVariantType.DoFunction
 0001:00000D74       System.Variants.TInvokeableVariantType.DoProcedure
 0001:00000D5C       System.Variants.TInvokeableVariantType.FixupIdent
 0001:00000D7C       System.Variants.Unassigned
 0001:00000CB4       System.Variants.VarArrayDimCount
 0001:00000CBC       System.Variants.VarArrayHighBound
 0001:00000CC4       System.Variants.VarArrayLock
 0001:00000CCC       System.Variants.VarArrayUnlock
 0001:00000CD4       System.Variants.VarIsArray
 0001:00000CAC       System.Variants.VarToDateTime
 0001:00000CA4       System.Variants.VarType
 0001:00000C4C       System.VarUtils.Finalization
 0002:00000058       System.VarUtils.System.VarUtils
 0001:00022DA8       System.Win.ComObj.Finalization
 0002:0000015C       System.Win.ComObj.System.Win.ComObj
 0002:00000154       System.Win.ComObj.TComServerObject.Create@
 0001:00022DA0       System.Win.ComObj.TComServerObject.Destroy@
 0004:0000001C       Winapi.Windows..2
 0001:00000A54       Winapi.Windows.CompareStringW
 0001:00000B2C       Winapi.Windows.Finalization
 0001:00000A5C       Winapi.Windows.FreeLibrary
 0001:00000A64       Winapi.Windows.GetProcAddress
 0001:00000A6C       Winapi.Windows.GetProcAddress
 0001:00000AE0       Winapi.Windows.GetVersionEx
 0004:00000020       Winapi.Windows.HtmlHelpModule
 0001:00000AF0       Winapi.Windows.InitVersionInfo
 0001:00000AE8       Winapi.Windows.LoadLibrary
 0003:00000088       Winapi.Windows.Win32MajorVersion
 0003:0000008C       Winapi.Windows.Win32MinorVersion
 0003:00000090       Winapi.Windows.Win32Platform
 0002:00000010       Winapi.Windows.Winapi.Windows


  Address             Publics by Value

 0001:00000000       System.@GetMem
 0001:00000008       System.@FreeMem
 0001:00000010       System.Move
 0001:00000018       System.@TRUNC
 0001:00000020       System.@AbstractError
 0001:00000028       System.@FillChar
 0001:00000030       System.TObject.NewInstance
 0001:00000038       System.TObject.FreeInstance
 0001:00000040       System.TObject.Create
 0001:00000048       System.TObject.Destroy
 0001:00000050       System.TObject.Free
 0001:00000058       System.TObject.Equals
 0001:00000060       System.TObject.GetHashCode
 0001:00000068       System.@IsClass
 0001:00000070       System.TObject.SafeCallException
 0001:00000078       System.TObject.ToString
 0001:00000080       System.TObject.DefaultHandler
 0001:00000088       System.TObject.AfterConstruction
 0001:00000090       System.TObject.BeforeDestruction
 0001:00000098       System.TObject.Dispatch
 0001:000000A0       System.@ClassCreate
 0001:000000A8       System.@ClassDestroy
 0001:000000B0       System.@AfterConstruction
 0001:000000B8       System.@BeforeDestruction
 0001:000000C0       System.@HandleAnyException
 0001:000000C8       System.@HandleFinally
 0001:000000D0       System.@RaiseExcept
 0001:000000D8       System.@DoneExcept
 0001:000000E0       System.@PackageLoad
 0001:000000E8       System.@PackageUnload
 0001:000000F0       System.@RunError
 0001:000000F8       System.@Assert
 0001:00000100       System.@UStrClr
 0001:00000108       System.@LStrClr
 0001:00000110       System.@UStrArrayClr
 0001:00000118       System.@LStrArrayClr
 0001:00000120       System.@UStrAddRef
 0001:00000128       System.@UStrFromPWCharLen
 0001:00000130       System.@UStrAsg
 0001:00000138       System.@UStrLAsg
 0001:00000140       System.@UStrLen
 0001:00000148       System.@LStrLen
 0001:00000150       System.@LStrFromPChar
 0001:00000158       System.@LStrFromPWChar
 0001:00000160       System.@LStrToPChar
 0001:00000168       System.@LStrFromUStr
 0001:00000170       System.@UStrToPWChar
 0001:00000178       System.@UStrFromPWChar
 0001:00000180       System.@UStrFromWStr
 0001:00000188       System.@UStrCat3
 0001:00000190       System.@UStrCatN
 0001:00000198       System.@UStrEqual
 0001:000001A0       System.@UStrCopy
 0001:000001A8       System.Pos
 0001:000001B0       System.@InitializeRecord
 0001:000001B8       System.@FinalizeRecord
 0001:000001C0       System.@FinalizeArray
 0001:000001C8       System.@AddRefRecord
 0001:000001D0       System.@CopyRecord
 0001:000001D8       System.@New
 0001:000001E0       System.@Dispose
 0001:000001E8       System.@DynArrayLength
 0001:000001F0       System.@DynArrayHigh
 0001:000001F8       System.@DynArraySetLength
 0001:00000200       System.@DynArrayClear
 0001:00000208       System.@DynArrayAsg
 0001:00000210       System.RegisterModule
 0001:00000218       System.UnregisterModule
 0001:00000220       System.@IntfClear
 0001:00000228       System.@IntfCopy
 0001:00000230       System.@IntfAddRef
 0001:00000238       System.TInterfacedObject.AfterConstruction
 0001:00000240       System.TInterfacedObject.BeforeDestruction
 0001:00000248       System.TInterfacedObject.NewInstance
 0001:00000250       System.TInterfacedObject.QueryInterface
 0001:00000258       System.TInterfacedObject._AddRef
 0001:00000260       System.TInterfacedObject._Release
 0001:00000268       System.UTF8Encode
 0001:00000270       System.UTF8ToString
 0001:00000278       System.UTF8ToString
 0001:00000280       System.Finalization
 0001:00000288       SysInit.InterlockedExchange
 0001:00000298       SysInit.FreeLibrary
 0001:000002A0       SysInit.LocalAlloc
 0001:000002A8       SysInit.LocalFree
 0001:000002B0       SysInit.TlsAlloc
 0001:000002B8       SysInit.TlsFree
 0001:000002C0       SysInit.TlsGetValue
 0001:000002C8       SysInit.TlsSetValue
 0001:000002D0       SysInit.GetLastError
 0001:000002D8       SysInit.LoadLibraryA
 0001:000002E0       SysInit.RaiseException
 0001:000002E8       SysInit.GetProcAddress
 0001:000002F0       SysInit.AllocTlsBuffer
 0001:000002FC       SysInit.GetTlsSize
 0001:00000304       SysInit.InitThreadTLS
 0001:00000348       SysInit.InitProcessTLS
 0001:00000374       SysInit.ExitThreadTLS
 0001:000003AC       SysInit.ExitProcessTLS
 0001:000003D0       SysInit.InitializeModule
 0001:000003DC       SysInit.UninitializeModule
 0001:00000400       SysInit.@InitPkg
 0001:00000464       SysInit.@PackageLoad
 0001:00000470       SysInit.@PackageUnload
 0001:0000047C       SysInit.@_delayLoadHelper2
 0001:0000075C       SysInit.@_FUnloadDelayLoadedDLL2
 0001:0000086C       SysInit.@_HrLoadAllImportsForDll
 0001:00000924       SysInit.ShutdownDelayHelp2
 0001:0000092C       SysInit...
 0001:0000093C       SysInit...
 0001:0000094C       SysInit...
 0001:0000095C       SysInit...
 0001:0000096C       SysInit...
 0001:0000097C       SysInit...
 0001:00000990       SysInit...
 0001:000009C0       SysInit...
 0001:000009D8       SysInit...
 0001:00000A00       SysInit...
 0001:00000A24       SysInit...
 0001:00000A34       SysInit...
 0001:00000A44       SysInit.Finalization
 0001:00000A54       Winapi.Windows.CompareStringW
 0001:00000A5C       Winapi.Windows.FreeLibrary
 0001:00000A64       Winapi.Windows.GetProcAddress
 0001:00000A6C       Winapi.Windows.GetProcAddress
 0001:00000AE0       Winapi.Windows.GetVersionEx
 0001:00000AE8       Winapi.Windows.LoadLibrary
 0001:00000AF0       Winapi.Windows.InitVersionInfo
 0001:00000B2C       Winapi.Windows.Finalization
 0001:00000B4C       System.Internal.ExcUtils.Finalization
 0001:00000B54       System.SysUtils.TOSVersion.Destroy@
 0001:00000B5C       System.SysUtils.UpperCase
 0001:00000B64       System.SysUtils.LowerCase
 0001:00000B6C       System.SysUtils.SameText
 0001:00000B74       System.SysUtils.AnsiUpperCase
 0001:00000B7C       System.SysUtils.IntToStr
 0001:00000B84       System.SysUtils.IntToStr
 0001:00000B8C       System.SysUtils.StrToInt
 0001:00000B94       System.SysUtils.StrLen
 0001:00000B9C       System.SysUtils.Format
 0001:00000BA4       System.SysUtils.FloatToStr
 0001:00000BAC       System.SysUtils.StrToFloat
 0001:00000BB4       System.SysUtils.DateToStr
 0001:00000BBC       System.SysUtils.DateTimeToStr
 0001:00000BC4       System.SysUtils.TryStrToDate
 0001:00000BCC       System.SysUtils.TryStrToDateTime
 0001:00000BD4       System.SysUtils.TFormatSettings.Create
 0001:00000BDC       System.SysUtils.OutOfMemoryError
 0001:00000BE4       System.SysUtils.Exception.Create
 0001:00000BEC       System.SysUtils.Exception.CreateFmt
 0001:00000BF4       System.SysUtils.Exception.CreateRes
 0001:00000BFC       System.SysUtils.Exception.Destroy
 0001:00000C04       System.SysUtils.Exception.GetBaseException
 0001:00000C0C       System.SysUtils.Exception.RaisingException
 0001:00000C14       System.SysUtils.Exception.ToString
 0001:00000C1C       System.SysUtils.Exception.Destroy@
 0001:00000C24       System.SysUtils.FreeAndNil
 0001:00000C2C       System.SysUtils.TLanguages.Destroy@
 0001:00000C34       System.SysUtils.TEncoding.Destroy@
 0001:00000C3C       System.SysUtils.TEncoding.GetUTF8
 0001:00000C44       System.SysUtils.Finalization
 0001:00000C4C       System.VarUtils.Finalization
 0001:00000C54       System.Variants.@VarClear
 0001:00000C5C       System.Variants.@VarClr
 0001:00000C64       System.Variants.@VarCopy
 0001:00000C6C       System.Variants.@VarToInt64
 0001:00000C74       System.Variants.@VarToReal
 0001:00000C7C       System.Variants.@VarToUStr
 0001:00000C84       System.Variants.@VarFromInt64
 0001:00000C8C       System.Variants.@VarFromReal
 0001:00000C94       System.Variants.@VarFromTDateTime
 0001:00000C9C       System.Variants.@VarFromUStr
 0001:00000CA4       System.Variants.VarType
 0001:00000CAC       System.Variants.VarToDateTime
 0001:00000CB4       System.Variants.VarArrayDimCount
 0001:00000CBC       System.Variants.VarArrayHighBound
 0001:00000CC4       System.Variants.VarArrayLock
 0001:00000CCC       System.Variants.VarArrayUnlock
 0001:00000CD4       System.Variants.VarIsArray
 0001:00000CDC       System.Variants.TCustomVariantType.BinaryOp
 0001:00000CE4       System.Variants.TCustomVariantType.Cast
 0001:00000CEC       System.Variants.TCustomVariantType.CastTo
 0001:00000CF4       System.Variants.TCustomVariantType.Compare
 0001:00000CFC       System.Variants.TCustomVariantType.CompareOp
 0001:00000D04       System.Variants.TCustomVariantType.CastToOle
 0001:00000D0C       System.Variants.TCustomVariantType.Create
 0001:00000D14       System.Variants.TCustomVariantType.Destroy
 0001:00000D1C       System.Variants.TCustomVariantType.IsClear
 0001:00000D24       System.Variants.TCustomVariantType.LeftPromotion
 0001:00000D2C       System.Variants.TCustomVariantType.OlePromotion
 0001:00000D34       System.Variants.TCustomVariantType.RightPromotion
 0001:00000D3C       System.Variants.TCustomVariantType.SimplisticClear
 0001:00000D44       System.Variants.TCustomVariantType.SimplisticCopy
 0001:00000D4C       System.Variants.TCustomVariantType.UnaryOp
 0001:00000D54       System.Variants.TCustomVariantType.QueryInterface
 0001:00000D5C       System.Variants.TInvokeableVariantType.FixupIdent
 0001:00000D64       System.Variants.TInvokeableVariantType.DispInvoke
 0001:00000D6C       System.Variants.TInvokeableVariantType.DoFunction
 0001:00000D74       System.Variants.TInvokeableVariantType.DoProcedure
 0001:00000D7C       System.Variants.Unassigned
 0001:00000D84       System.Variants.Finalization
 0001:00000D8C       System.TypInfo.Finalization
 0001:00000D94       System.Classes.RegisterComponents
 0001:00000D9C       System.Classes.TList.Add
 0001:00000DA4       System.Classes.TList.Get
 0001:00000DAC       System.Classes.TPersistent.Assign
 0001:00000DB4       System.Classes.TPersistent.AssignTo
 0001:00000DBC       System.Classes.TCollection.Clear
 0001:00000DC4       System.Classes.TCollection.GetCount
 0001:00000DCC       System.Classes.TStrings.BeginUpdate
 0001:00000DD4       System.Classes.TStrings.EndUpdate
 0001:00000DDC       System.Classes.TStringList.Create
 0001:00000DE4       System.Classes.TStream.SetPosition
 0001:00000DEC       System.Classes.TStream.WriteBuffer
 0001:00000DF4       System.Classes.TMemoryStream.LoadFromStream
 0001:00000DFC       System.Classes.TStringStream.Create
 0001:00000E04       System.Classes.TStringStream.ReadString
 0001:00000E0C       System.Classes.TThread.Destroy@
 0001:00000E14       System.Classes.TComponent.Create
 0001:00000E1C       System.Classes.TComponent.Destroy
 0001:00000E24       System.Classes.TComponent.BeforeDestruction
 0001:00000E2C       System.Classes.TComponent.Notification
 0001:00000E34       System.Classes.TComponent.DefineProperties
 0001:00000E3C       System.Classes.TComponent.Loaded
 0001:00000E44       System.Classes.TComponent.ReadState
 0001:00000E4C       System.Classes.TComponent.WriteState
 0001:00000E54       System.Classes.TComponent.ValidateRename
 0001:00000E5C       System.Classes.TComponent.SetName
 0001:00000E64       System.Classes.TComponent.GetObservers
 0001:00000E6C       System.Classes.TComponent.UpdateAction
 0001:00000E74       System.Classes.TComponent.CanObserve
 0001:00000E7C       System.Classes.TComponent.ObserverAdded
 0001:00000E84       System.Classes.TComponent.SafeCallException
 0001:00000E8C       System.Classes.TComponent.UpdateRegistry
 0001:00000E94       System.Classes.TComponent.QueryInterface
 0001:00000E9C       System.Classes.TBinaryWriter.Destroy@
 0001:00000EA4       System.Classes.TLoginCredentialService.Destroy@
 0001:00000EAC       System.Classes.TObserverMapping.Destroy@
 0001:00000EB4       System.Classes.Finalization
 0001:00001204       SQLite3.SQLiteFieldType
 0001:000013B8       SQLite3.SQLiteErrorStr
 0001:00002024       SQLite3.LoadProc
 0001:00002110       SQLite3.LoadProcSilent
 0001:00002138       SQLite3.LoadSQLite
 0001:00003A50       SQLite3.UnloadSQLite
 0001:00003A70       SQLite3.Finalization
 0001:00003A84       System.Math.Finalization
 0001:00003A8C       System.TimeSpan.TTimeSpan.Destroy@
 0001:00003A94       System.SyncObjs.Finalization
 0001:00003A9C       System.StrUtils.PosEx
 0001:00003AA4       System.Generics.Defaults._LookupVtableInfo
 0001:00003AAC       System.Generics.Collections.InCircularRange
 0001:00003AB4       System.DateUtils.TTimeZone.Destroy@
 0001:00003ABC       Data.SqlTimSt.Finalization
 0001:00003AC4       Data.FmtBcd.Finalization
 0001:00003ACC       Data.DB.TFieldDefs.Add
 0001:00003AD4       Data.DB.TFields.GetField
 0001:00003ADC       Data.DB.TField.GetOldValue
 0001:00003AE4       Data.DB.TParams.GetItem
 0001:00003AEC       Data.DB.TParam.GetAsVariant
 0001:00003AF4       Data.DB.TDataSet.SetName
 0001:00003AFC       Data.DB.TDataSet.CreateNestedDataSet
 0001:00003B04       Data.DB.TDataSet.CheckInactive
 0001:00003B0C       Data.DB.TDataSet.CheckActive
 0001:00003B14       Data.DB.TDataSet.GetActive
 0001:00003B1C       Data.DB.TDataSet.SetActive
 0001:00003B24       Data.DB.TDataSet.GetDetailDataSets
 0001:00003B2C       Data.DB.TDataSet.GetDetailLinkFields
 0001:00003B34       Data.DB.TDataSet.GetLookupListClass
 0001:00003B3C       Data.DB.TDataSet.InitFieldDefs
 0001:00003B44       Data.DB.TDataSet.GetFieldClass
 0001:00003B4C       Data.DB.TDataSet.GetFieldClass
 0001:00003B54       Data.DB.TDataSet.GetFieldFullName
 0001:00003B5C       Data.DB.TDataSet.CreateFields
 0001:00003B64       Data.DB.TDataSet.DestroyFields
 0001:00003B6C       Data.DB.TDataSet.CheckFieldCompatibility
 0001:00003B74       Data.DB.TDataSet.BindFields
 0001:00003B7C       Data.DB.TDataSet.FreeFieldBuffers
 0001:00003B84       Data.DB.TDataSet.GetBlobFieldData
 0001:00003B8C       Data.DB.TDataSet.GetFieldData
 0001:00003B94       Data.DB.TDataSet.SetFieldData
 0001:00003B9C       Data.DB.TDataSet.FieldByName
 0001:00003BA4       Data.DB.TDataSet.FindField
 0001:00003BAC       Data.DB.TDataSet.GetFieldNames
 0001:00003BB4       Data.DB.TDataSet.GetFieldNames
 0001:00003BBC       Data.DB.TDataSet.SetStateFieldValue
 0001:00003BC4       Data.DB.TDataSet.CloseBlob
 0001:00003BCC       Data.DB.TDataSet.GetParamsClass
 0001:00003BD4       Data.DB.TDataSet.GetFieldsClass
 0001:00003BDC       Data.DB.TDataSet.GetAggFieldsClass
 0001:00003BE4       Data.DB.TDataSet.GetFieldListClass
 0001:00003BEC       Data.DB.TDataSet.GetFieldDefsClass
 0001:00003BF4       Data.DB.TDataSet.GetIndexDefsClass
 0001:00003BFC       Data.DB.TDataSet.GetFieldDefListClass
 0001:00003C04       Data.DB.TDataSet.GetCheckConstraintsClass
 0001:00003C0C       Data.DB.TDataSet.DisableControls
 0001:00003C14       Data.DB.TDataSet.EnableControls
 0001:00003C1C       Data.DB.TDataSet.SetBufListSize
 0001:00003C24       Data.DB.TDataSet.SetCurrentRecord
 0001:00003C2C       Data.DB.TDataSet.GetNextRecord
 0001:00003C34       Data.DB.TDataSet.GetPriorRecord
 0001:00003C3C       Data.DB.TDataSet.Resync
 0001:00003C44       Data.DB.TDataSet.ClearBuffers
 0001:00003C4C       Data.DB.TDataSet.ActivateBuffers
 0001:00003C54       Data.DB.TDataSet.UpdateCursorPos
 0001:00003C5C       Data.DB.TDataSet.GetNextRecords
 0001:00003C64       Data.DB.TDataSet.GetPriorRecords
 0001:00003C6C       Data.DB.TDataSet.GetCalcFields
 0001:00003C74       Data.DB.TDataSet.CalculateFields
 0001:00003C7C       Data.DB.TDataSet.First
 0001:00003C84       Data.DB.TDataSet.MoveBy
 0001:00003C8C       Data.DB.TDataSet.Next
 0001:00003C94       Data.DB.TDataSet.BlockReadNext
 0001:00003C9C       Data.DB.TDataSet.SetBlockReadSize
 0001:00003CA4       Data.DB.TDataSet.Edit
 0001:00003CAC       Data.DB.TDataSet.Append
 0001:00003CB4       Data.DB.TDataSet.Delete
 0001:00003CBC       Data.DB.TDataSet.Translate
 0001:00003CC4       Data.DB.TDataSet.GetBookmark
 0001:00003CCC       Data.DB.TDataSet.FreeBookmark
 0001:00003CD4       Data.DB.TDataSet.GetBookmarkStr
 0001:00003CDC       Data.DB.TDataSet.SetBookmarkStr
 0001:00003CE4       Data.DB.TDataSet.GotoBookmark
 0001:00003CEC       Data.DB.TDataSet.GetAggRecordCount
 0001:00003CF4       Data.DB.TDataSet.IsSequenced
 0001:00003CFC       Data.DB.TDataSet.DoAfterCancel
 0001:00003D04       Data.DB.TDataSet.DoAfterClose
 0001:00003D0C       Data.DB.TDataSet.DoAfterDelete
 0001:00003D14       Data.DB.TDataSet.DoAfterEdit
 0001:00003D1C       Data.DB.TDataSet.DoAfterInsert
 0001:00003D24       Data.DB.TDataSet.DoAfterOpen
 0001:00003D2C       Data.DB.TDataSet.DoAfterPost
 0001:00003D34       Data.DB.TDataSet.DoAfterRefresh
 0001:00003D3C       Data.DB.TDataSet.DoAfterScroll
 0001:00003D44       Data.DB.TDataSet.DoBeforeCancel
 0001:00003D4C       Data.DB.TDataSet.DoBeforeClose
 0001:00003D54       Data.DB.TDataSet.DoBeforeDelete
 0001:00003D5C       Data.DB.TDataSet.DoBeforeEdit
 0001:00003D64       Data.DB.TDataSet.DoBeforeOpen
 0001:00003D6C       Data.DB.TDataSet.DoBeforePost
 0001:00003D74       Data.DB.TDataSet.DoBeforeRefresh
 0001:00003D7C       Data.DB.TDataSet.DoBeforeScroll
 0001:00003D84       Data.DB.TDataSet.DoOnCalcFields
 0001:00003D8C       Data.DB.TDataSet.PSEndTransaction
 0001:00003D94       Data.DB.TDataSet.PSExecute
 0001:00003D9C       Data.DB.TDataSet.PSExecuteStatement
 0001:00003DA4       Data.DB.TDataSet.PSExecuteStatement
 0001:00003DAC       Data.DB.TDataSet.PSGetAttributes
 0001:00003DB4       Data.DB.TDataSet.PSGetCommandTextW
 0001:00003DBC       Data.DB.TDataSet.PSGetDefaultOrder
 0001:00003DC4       Data.DB.TDataSet.PSGetKeyFields
 0001:00003DCC       Data.DB.TDataSet.PSGetKeyFieldsW
 0001:00003DD4       Data.DB.TDataSet.PSGetParams
 0001:00003DDC       Data.DB.TDataSet.PSGetQuoteChar
 0001:00003DE4       Data.DB.TDataSet.PSGetQuoteCharW
 0001:00003DEC       Data.DB.TDataSet.PSGetTableName
 0001:00003DF4       Data.DB.TDataSet.PSGetTableNameW
 0001:00003DFC       Data.DB.TDataSet.PSGetUpdateException
 0001:00003E04       Data.DB.TDataSet.PSInTransaction
 0001:00003E0C       Data.DB.TDataSet.PSIsSQLBased
 0001:00003E14       Data.DB.TDataSet.PSIsSQLSupported
 0001:00003E1C       Data.DB.TDataSet.PSReset
 0001:00003E24       Data.DB.TDataSet.PSSetCommandText
 0001:00003E2C       Data.DB.TDataSet.PSSetCommandText
 0001:00003E34       Data.DB.TDataSet.PSSetParams
 0001:00003E3C       Data.DB.TDataSet.PSStartTransaction
 0001:00003E44       Data.DB.TDataSet.PSUpdateRecord
 0001:00003E4C       Data.DB.Finalization
 0001:00003E54       System.Rtti.Finalization
 0001:00003EA0       SQLiteTable3..ESQLiteException
 0001:00003F50       SQLiteTable3..TSQliteParam
 0001:0000447C       SQLiteTable3..TSQLiteFunctions
 0001:00004960       SQLiteTable3..TSQLiteDatabase
 0001:00005C84       SQLiteTable3..TSQLiteTable
 0001:00006594       SQLiteTable3..TSQLitePreparedStatement
 0001:00007120       SQLiteTable3..TSQLiteField
 0001:00007608       SQLiteTable3..TUniTableEnumerator
 0001:000079CC       SQLiteTable3..TSQLiteUniTable
 0001:000083B0       SQLiteTable3..{System.Generics.Collections}TEnumerator<SQLiteTable3.PSQLiteFuncs>
 0001:000084F4       SQLiteTable3..{System.Generics.Collections}TEnumerable<SQLiteTable3.PSQLiteFuncs>
 0001:00008878       SQLiteTable3..{System.Generics.Collections}TList<SQLiteTable3.PSQLiteFuncs>.TEnumerator
 0001:00008A30       SQLiteTable3..{System.Generics.Collections}TList<SQLiteTable3.PSQLiteFuncs>
 0001:00009530       SQLiteTable3..{System.Generics.Collections}TEnumerator<SQLiteTable3.TPair<System.string,System.Integer>>
 0001:000096A0       SQLiteTable3..{System.Generics.Collections}TEnumerable<SQLiteTable3.TPair<System.string,System.Integer>>
 0001:00009B08       SQLiteTable3..{System.Generics.Collections}TEnumerator<System.string>
 0001:00009C34       SQLiteTable3..{System.Generics.Collections}TEnumerable<System.string>
 0001:00009D74       SQLiteTable3..{System.Generics.Collections}TDictionary<System.string,System.Integer>.TKeyEnumerator
 0001:00009F50       SQLiteTable3..{System.Generics.Collections}TDictionary<System.string,System.Integer>.TKeyCollection
 0001:0000A190       SQLiteTable3..{System.Generics.Collections}TEnumerator<System.Integer>
 0001:0000A2BC       SQLiteTable3..{System.Generics.Collections}TEnumerable<System.Integer>
 0001:0000A400       SQLiteTable3..{System.Generics.Collections}TDictionary<System.string,System.Integer>.TValueEnumerator
 0001:0000A5E0       SQLiteTable3..{System.Generics.Collections}TDictionary<System.string,System.Integer>.TValueCollection
 0001:0000A7EC       SQLiteTable3..{System.Generics.Collections}TDictionary<System.string,System.Integer>.TPairEnumerator
 0001:0000A9C8       SQLiteTable3..{System.Generics.Collections}TDictionary<System.string,System.Integer>
 0001:0000B1A0       SQLiteTable3..{System.Generics.Collections}TEnumerator<SQLiteTable3.TSQliteParam>
 0001:0000B2E4       SQLiteTable3..{System.Generics.Collections}TEnumerable<SQLiteTable3.TSQliteParam>
 0001:0000B668       SQLiteTable3..{System.Generics.Collections}TList<SQLiteTable3.TSQliteParam>.TEnumerator
 0001:0000B820       SQLiteTable3..{System.Generics.Collections}TList<SQLiteTable3.TSQliteParam>
 0001:0000C230       SQLiteTable3..{System.Generics.Collections}TObjectList<SQLiteTable3.TSQliteParam>
 0001:0000C4A0       SQLiteTable3..{System.Generics.Collections}TEnumerator<SQLiteTable3.TSQLiteField>
 0001:0000C5E4       SQLiteTable3..{System.Generics.Collections}TEnumerable<SQLiteTable3.TSQLiteField>
 0001:0000C968       SQLiteTable3..{System.Generics.Collections}TList<SQLiteTable3.TSQLiteField>.TEnumerator
 0001:0000CB20       SQLiteTable3..{System.Generics.Collections}TList<SQLiteTable3.TSQLiteField>
 0001:0000D530       SQLiteTable3..{System.Generics.Collections}TObjectList<SQLiteTable3.TSQLiteField>
 0001:0000D75C       SQLiteTable3..TVarDataRecordType
 0001:0000D9A0       SQLiteTable3.VarDataRecord
 0001:0000D9B8       SQLiteTable3.VarDataRecordCreate
 0001:0000D9E4       SQLiteTable3.TVarDataRecordType.Clear
 0001:0000DA00       SQLiteTable3.TVarDataRecordType.Copy
 0001:0000DA28       SQLiteTable3.TVarDataRecordType.GetProperty
 0001:0000DAB0       SQLiteTable3.TVarDataRecordType.SetProperty
 0001:0000DCD8       SQLiteTable3.DisposePointer
 0001:0000DCEC       SQLiteTable3.AggFinalDefFunc
 0001:0000DD5C       SQLiteTable3.AggStepDefFunc
 0001:0000DDD8       SQLiteTable3.ScalarDefFunc
 0001:0000DE88       SQLiteTable3.DoAuthorize
 0001:0000DF48       SQLiteTable3.DoUpdateHook
 0001:0000DFD4       SQLiteTable3.SystemCollate
 0001:0000E000       SQLiteTable3.SQLiteDataTypeToDelphiFieldType
 0001:0000E078       SQLiteTable3.TSQLiteDatabase.Create
 0001:0000E254       SQLiteTable3.TSQLiteDatabase.Create
 0001:0000E2A0       SQLiteTable3.TSQLiteDatabase.Destroy
 0001:0000E300       SQLiteTable3.TSQLiteDatabase.GetLastInsertRowID
 0001:0000E32C       SQLiteTable3.TSQLiteDatabase.GetMemoryUsed
 0001:0000E350       SQLiteTable3.TSQLiteDatabase.GetPreparedStatement
 0001:0000E388       SQLiteTable3.TSQLiteDatabase.GetPreparedStatementIntf
 0001:0000E3B8       SQLiteTable3.TSQLiteDatabase.GetPreparedStatementIntf
 0001:0000E3F0       SQLiteTable3.TSQLiteDatabase.GetPreparedStatement
 0001:0000E41C       SQLiteTable3.TSQLiteDatabase.GetLastChangedRows
 0001:0000E440       SQLiteTable3.TSQLiteDatabase.RaiseError
 0001:0000E5C0       SQLiteTable3.TSQLiteDatabase.RaiseError
 0001:0000E6E4       SQLiteTable3.TSQLiteDatabase.SetSynchronised
 0001:0000E7B8       SQLiteTable3.TSQLiteDatabase.SetReadUncommitted
 0001:0000E8E8       SQLiteTable3.TSQLiteDatabase.ExecSQL
 0001:0000EA94       SQLiteTable3.TSQLiteDatabase.ExecSQL
 0001:0000EB9C       SQLiteTable3.TSQLiteDatabase.ExecSQL
 0001:0000EBC8       SQLiteTable3.TSQLiteDatabase.ExecSQL
 0001:0000EC3C       SQLiteTable3.TSQLiteDatabase.ExecSQL
 0001:0000EC64       SQLiteTable3.TSQLiteDatabase.PrepareSQL
 0001:0000ED74       SQLiteTable3.TSQLiteDatabase.BindSQL
 0001:0000EE70       SQLiteTable3.TSQLiteDatabase.BindSQL
 0001:0000EF7C       SQLiteTable3.TSQLiteDatabase.Reindex
 0001:0000EFB0       SQLiteTable3.TSQLiteDatabase.ReleaseSQL
 0001:0000F094       SQLiteTable3.TSQLiteDatabase.UpdateBlob
 0001:0000F3F0       SQLiteTable3.TSQLiteDatabase.GetTable
 0001:0000F41C       SQLiteTable3.TSQLiteDatabase.GetTableColumnMetadata
 0001:0000F5AC       SQLiteTable3.TSQLiteDatabase.GetUniTable
 0001:0000F5D4       SQLiteTable3.TSQLiteDatabase.GetUniTable
 0001:0000F640       SQLiteTable3.TSQLiteDatabase.GetUniTableIntf
 0001:0000F6B4       SQLiteTable3.TSQLiteDatabase.GetUniTableIntf
 0001:0000F718       SQLiteTable3.TSQLiteDatabase.InitDefaultColumnTypes
 0001:0000F75C       SQLiteTable3.TSQLiteDatabase.LoadExtension
 0001:0000F838       SQLiteTable3.TSQLiteDatabase.Open
 0001:0000FBBC       SQLiteTable3.TSQLiteDatabase.GetTableValue
 0001:0000FC54       SQLiteTable3.TSQLiteDatabase.GetTableString
 0001:0000FCE0       SQLiteTable3.TSQLiteDatabase.GetTableStrings
 0001:0000FDC4       SQLiteTable3.TSQLiteDatabase.BeginTransaction
 0001:0000FE74       SQLiteTable3.TSQLiteDatabase.ChangePassword
 0001:0000FFCC       SQLiteTable3.TSQLiteDatabase.Close
 0001:00010034       SQLiteTable3.TSQLiteDatabase.Commit
 0001:00010070       SQLiteTable3.TSQLiteDatabase.Rollback
 0001:000100B0       SQLiteTable3.TSQLiteDatabase.TableExists
 0001:00010224       SQLiteTable3.TSQLiteDatabase.SetTimeout
 0001:0001024C       SQLiteTable3.TSQLiteDatabase.Vacuum
 0001:00010280       SQLiteTable3.TSQLiteDatabase.Version
 0001:000102A4       SQLiteTable3.TSQLiteDatabase.AddCustomCollate
 0001:000102DC       SQLiteTable3.TSQLiteDatabase.AddSystemCollate
 0001:00010318       SQLiteTable3.TSQLiteDatabase.Analyze
 0001:0001034C       SQLiteTable3.TSQLiteDatabase.Attach
 0001:00010404       SQLiteTable3.TSQLiteDatabase.ParamsClear
 0001:00010454       SQLiteTable3.TSQLiteDatabase.AddParamInt
 0001:000104AC       SQLiteTable3.TSQLiteDatabase.AddNewSupportedColumnType
 0001:00010518       SQLiteTable3.TSQLiteDatabase.AddParamFloat
 0001:00010570       SQLiteTable3.TSQLiteDatabase.AddParamText
 0001:000105C8       SQLiteTable3.TSQLiteDatabase.AddParamNull
 0001:00010610       SQLiteTable3.TSQLiteDatabase.SetConnected
 0001:0001066C       SQLiteTable3.TSQLiteDatabase.SetEvents
 0001:000106A4       SQLiteTable3.TSQLiteDatabase.SetExtEnabled
 0001:000106F4       SQLiteTable3.TSQLiteDatabase.SetFilename
 0001:00010728       SQLiteTable3.TSQLiteDatabase.SetOnAuthorize
 0001:00010798       SQLiteTable3.TSQLiteDatabase.SetOnUpdate
 0001:00010808       SQLiteTable3.TSQLiteDatabase.SetParams
 0001:00010984       SQLiteTable3.TSQLiteDatabase.GetRowsChanged
 0001:000109BC       SQLiteTable3.TSQLiteDatabase.DoQuery
 0001:000109E8       SQLiteTable3.TSQLiteDatabase.Backup
 0001:00010B34       SQLiteTable3.TSQLiteDatabase.Backup
 0001:00010B78       SQLiteTable3.TSQLiteTable.Create
 0001:0001118C       SQLiteTable3.TSQLiteTable.Destroy
 0001:000112F4       SQLiteTable3.TSQLiteTable.GetColumns
 0001:0001131C       SQLiteTable3.TSQLiteTable.GetCountResult
 0001:00011388       SQLiteTable3.TSQLiteTable.GetCount
 0001:000113A4       SQLiteTable3.TSQLiteTable.GetEOF
 0001:000113C4       SQLiteTable3.TSQLiteTable.GetIsLastRow
 0001:000113E8       SQLiteTable3.TSQLiteTable.GetBOF
 0001:00011404       SQLiteTable3.TSQLiteTable.GetFieldValByName
 0001:00011430       SQLiteTable3.TSQLiteTable.GetFieldIndex
 0001:000115E0       SQLiteTable3.TSQLiteTable.GetFields
 0001:00011708       SQLiteTable3.TSQLiteTable.FieldAsBlob
 0001:00011818       SQLiteTable3.TSQLiteTable.FieldAsBlobText
 0001:000118D0       SQLiteTable3.TSQLiteTable.FieldAsInteger
 0001:00011A58       SQLiteTable3.TSQLiteTable.FieldAsDouble
 0001:00011BC8       SQLiteTable3.TSQLiteTable.FieldAsString
 0001:00011C70       SQLiteTable3.TSQLiteTable.FieldIsNull
 0001:00011D08       SQLiteTable3.TSQLiteTable.Next
 0001:00011D34       SQLiteTable3.TSQLiteTable.Previous
 0001:00011D60       SQLiteTable3.TSQLiteTable.MoveFirst
 0001:00011D8C       SQLiteTable3.TSQLiteTable.MoveLast
 0001:00011DBC       SQLiteTable3.TSQLiteTable.MoveTo
 0001:00011DF4       SQLiteTable3.TSQLiteUniTable.Create
 0001:00011E50       SQLiteTable3.TSQLiteUniTable.Create
 0001:00011EE4       SQLiteTable3.TSQLiteUniTable.Create
 0001:00011F40       SQLiteTable3.TSQLiteUniTable.Destroy
 0001:00011FAC       SQLiteTable3.TSQLiteUniTable.GetDataTypes
 0001:000121DC       SQLiteTable3.TSQLiteUniTable.GetEnumerator
 0001:00012200       SQLiteTable3.TSQLiteUniTable.GetEOF
 0001:0001221C       SQLiteTable3.TSQLiteUniTable.FieldAsBlob
 0001:000122B4       SQLiteTable3.TSQLiteUniTable.FieldAsBlobPtr
 0001:00012300       SQLiteTable3.TSQLiteUniTable.FieldAsBlobText
 0001:000123E4       SQLiteTable3.TSQLiteUniTable.FieldAsDouble
 0001:00012414       SQLiteTable3.TSQLiteUniTable.FieldAsInteger
 0001:00012448       SQLiteTable3.TSQLiteUniTable.FieldAsString
 0001:0001246C       SQLiteTable3.TSQLiteUniTable.FieldIsNull
 0001:0001249C       SQLiteTable3.TSQLiteUniTable.FindField
 0001:00012518       SQLiteTable3.TSQLiteUniTable.GetColumns
 0001:00012540       SQLiteTable3.TSQLiteUniTable.GetCurrentRec
 0001:0001255C       SQLiteTable3.TSQLiteUniTable.GetField
 0001:00012580       SQLiteTable3.TSQLiteUniTable.GetFieldByName
 0001:000125AC       SQLiteTable3.TSQLiteUniTable.GetFieldByNameAsString
 0001:000125D8       SQLiteTable3.TSQLiteUniTable.GetFieldCount
 0001:000125F4       SQLiteTable3.TSQLiteUniTable.GetFieldIndex
 0001:000127A4       SQLiteTable3.TSQLiteUniTable.GetFieldsAsString
 0001:000127D8       SQLiteTable3.TSQLiteUniTable.GetFieldsVal
 0001:000129EC       SQLiteTable3.TSQLiteUniTable.GetRow
 0001:00012A08       SQLiteTable3.TSQLiteUniTable.Next
 0001:00012AC0       SQLiteTable3.TSQLiteUniTable.SetField
 0001:00012AD4       SQLiteTable3.TSQLiteUniTable.SetFieldByName
 0001:00012AE8       SQLiteTable3.TSQLiteUniTable.SetFields
 0001:00012AFC       SQLiteTable3.TSQliteParam.Create
 0001:00012B60       SQLiteTable3.TSQLitePreparedStatement.SetParamDateTime
 0001:00012BC8       SQLiteTable3.TSQLitePreparedStatement.SetParamDate
 0001:00012C30       SQLiteTable3.TSQLitePreparedStatement.SetParamBlob
 0001:00012C54       SQLiteTable3.TSQLitePreparedStatement.SetParamBlob
 0001:00012C78       SQLiteTable3.TSQLitePreparedStatement.SetParamBlobInternal
 0001:00012DD4       SQLiteTable3.TSQLitePreparedStatement.SetParamDate
 0001:00012E3C       SQLiteTable3.TSQLitePreparedStatement.SetParamDateTime
 0001:00012EA4       SQLiteTable3.TSQLitePreparedStatement.SetParamFloat
 0001:00012ECC       SQLiteTable3.TSQLitePreparedStatement.SetParamFloatInternal
 0001:00012F30       SQLiteTable3.TSQLitePreparedStatement.SetParamFloat
 0001:00012F58       SQLiteTable3.TSQLitePreparedStatement.SetParamInt
 0001:00012F80       SQLiteTable3.TSQLitePreparedStatement.SetParamInt
 0001:00012FA8       SQLiteTable3.TSQLitePreparedStatement.SetParamIntInternal
 0001:0001300C       SQLiteTable3.TSQLitePreparedStatement.SetParamNull
 0001:0001302C       SQLiteTable3.TSQLitePreparedStatement.SetParamNull
 0001:0001304C       SQLiteTable3.TSQLitePreparedStatement.SetParamNullInternal
 0001:000130A0       SQLiteTable3.TSQLitePreparedStatement.SetParams
 0001:00013388       SQLiteTable3.TSQLitePreparedStatement.SetParamText
 0001:000133AC       SQLiteTable3.TSQLitePreparedStatement.SetParamText
 0001:000133D0       SQLiteTable3.TSQLitePreparedStatement.SetParamTextInternal
 0001:00013434       SQLiteTable3.TSQLitePreparedStatement.SetParamVariant
 0001:00013458       SQLiteTable3.TSQLitePreparedStatement.SetParamVariant
 0001:0001347C       SQLiteTable3.TSQLitePreparedStatement.SetParamVariantInternal
 0001:0001365C       SQLiteTable3.TSQLitePreparedStatement.SetSQL
 0001:000136D8       SQLiteTable3.TSQLitePreparedStatement.ClearParams
 0001:00013718       SQLiteTable3.TSQLitePreparedStatement.Create
 0001:00013878       SQLiteTable3.TSQLitePreparedStatement.Create
 0001:000138CC       SQLiteTable3.TSQLitePreparedStatement.Create
 0001:00013950       SQLiteTable3.TSQLitePreparedStatement.Destroy
 0001:000139C0       SQLiteTable3.TSQLitePreparedStatement.ExecQuery
 0001:000139E4       SQLiteTable3.TSQLitePreparedStatement.ExecQuery
 0001:00013A0C       SQLiteTable3.TSQLitePreparedStatement.ExecQuery
 0001:00013A70       SQLiteTable3.TSQLitePreparedStatement.ExecQueryIntf
 0001:00013AA8       SQLiteTable3.TSQLitePreparedStatement.ExecQueryIntf
 0001:00013AD4       SQLiteTable3.TSQLitePreparedStatement.ExecQueryIntf
 0001:00013B04       SQLiteTable3.TSQLitePreparedStatement.ExecSQL
 0001:00013C2C       SQLiteTable3.TSQLitePreparedStatement.ExecSQL
 0001:00013C50       SQLiteTable3.TSQLitePreparedStatement.ExecSQL
 0001:00013C94       SQLiteTable3.TSQLitePreparedStatement.ExecSQL
 0001:00013CBC       SQLiteTable3.TSQLitePreparedStatement.ExecSQL
 0001:00013CE0       SQLiteTable3.TSQLitePreparedStatement.GetParamCount
 0001:00013CE0       SQLiteTable3.TSQLitePreparedStatement.ExecSQLAndMapData
 0001:00013CFC       SQLiteTable3.TSQLitePreparedStatement.GetParams
 0001:00013D20       SQLiteTable3.TSQLitePreparedStatement.PrepareStatement
 0001:00013D50       SQLiteTable3.TSQLitePreparedStatement.PrepareStatement
 0001:00013E78       SQLiteTable3.TSQLitePreparedStatement.BindParameterCount
 0001:00013EAC       SQLiteTable3.TSQLitePreparedStatement.BindParameterName
 0001:00013EF0       SQLiteTable3.TSQLitePreparedStatement.BindParams
 0001:00014184       SQLiteTable3.TSQLiteField.AsBlob
 0001:000141A8       SQLiteTable3.TSQLiteField.AsBlobPtr
 0001:000141D4       SQLiteTable3.TSQLiteField.AsBlobText
 0001:000141F8       SQLiteTable3.TSQLiteField.AsBlobTextDef
 0001:00014258       SQLiteTable3.TSQLiteField.AsDateTime
 0001:000142B8       SQLiteTable3.TSQLiteField.AsDateTimeDef
 0001:00014318       SQLiteTable3.TSQLiteField.AsDouble
 0001:00014340       SQLiteTable3.TSQLiteField.AsDoubleDef
 0001:000143A0       SQLiteTable3.TSQLiteField.AsInteger
 0001:000143CC       SQLiteTable3.TSQLiteField.AsIntegerDef
 0001:00014430       SQLiteTable3.TSQLiteField.AsString
 0001:00014454       SQLiteTable3.TSQLiteField.AsStringDef
 0001:000144B4       SQLiteTable3.TSQLiteField.Create
 0001:000144F8       SQLiteTable3.TSQLiteField.Destroy
 0001:00014534       SQLiteTable3.TSQLiteField.IsNull
 0001:00014558       SQLiteTable3.TSQLiteField.Value
 0001:00014580       SQLiteTable3.TSQLiteField.ValueDef
 0001:000145E0       SQLiteTable3.TSQLiteFunctions.AddAggregateFunction
 0001:00014788       SQLiteTable3.TSQLiteFunctions.AddScalarFunction
 0001:00014910       SQLiteTable3.TSQLiteFunctions.Clear
 0001:00014998       SQLiteTable3.TSQLiteFunctions.Create
 0001:000149F8       SQLiteTable3.TSQLiteFunctions.Destroy
 0001:00014A44       SQLiteTable3.TSQLiteFunctions.GetValueType
 0001:00014A6C       SQLiteTable3.TSQLiteFunctions.ResultAsFloat
 0001:00014A94       SQLiteTable3.TSQLiteFunctions.ResultAsInteger
 0001:00014ABC       SQLiteTable3.TSQLiteFunctions.ResultAsNull
 0001:00014ADC       SQLiteTable3.TSQLiteFunctions.ResultAsString
 0001:00014B40       SQLiteTable3.TSQLiteFunctions.ValueAsFloat
 0001:00014B68       SQLiteTable3.TSQLiteFunctions.ValueAsInteger
 0001:00014B94       SQLiteTable3.TSQLiteFunctions.ValueAsString
 0001:00014BC4       SQLiteTable3.TUniTableEnumerator.Create
 0001:00014C18       SQLiteTable3.TUniTableEnumerator.Destroy
 0001:00014C54       SQLiteTable3.TUniTableEnumerator.GetCurrent
 0001:00014C74       SQLiteTable3.TUniTableEnumerator.MoveNext
 0001:00014CB4       SQLiteTable3.Finalization
 0001:00014D10       SQLiteTable3.{System.Generics.Collections}TEnumerable<SQLiteTable3.PSQLiteFuncs>.ToArrayImpl
 0001:00014DB0       SQLiteTable3.{System.Generics.Collections}TEnumerable<SQLiteTable3.PSQLiteFuncs>.GetEnumerator
 0001:00014DCC       SQLiteTable3.{System.Generics.Collections}TEnumerable<SQLiteTable3.PSQLiteFuncs>.ToArray
 0001:00014E88       SQLiteTable3.{System.Generics.Collections}TEnumerator<SQLiteTable3.PSQLiteFuncs>.MoveNext
 0001:00014EA4       SQLiteTable3.{System.Generics.Collections}TList<SQLiteTable3.PSQLiteFuncs>.GetCapacity
 0001:00014EC4       SQLiteTable3.{System.Generics.Collections}TList<SQLiteTable3.PSQLiteFuncs>.SetCapacity
 0001:00014F08       SQLiteTable3.{System.Generics.Collections}TList<SQLiteTable3.PSQLiteFuncs>.SetCount
 0001:00014F78       SQLiteTable3.{System.Generics.Collections}TList<SQLiteTable3.PSQLiteFuncs>.GetItem
 0001:00014FC4       SQLiteTable3.{System.Generics.Collections}TList<SQLiteTable3.PSQLiteFuncs>.SetItem
 0001:0001503C       SQLiteTable3.{System.Generics.Collections}TList<SQLiteTable3.PSQLiteFuncs>.Grow
 0001:00015090       SQLiteTable3.{System.Generics.Collections}TList<SQLiteTable3.PSQLiteFuncs>.GrowCheck
 0001:000150C8       SQLiteTable3.{System.Generics.Collections}TList<SQLiteTable3.PSQLiteFuncs>.DoDelete
 0001:00015188       SQLiteTable3.{System.Generics.Collections}TList<SQLiteTable3.PSQLiteFuncs>.DoGetEnumerator
 0001:000151A4       SQLiteTable3.{System.Generics.Collections}TList<SQLiteTable3.PSQLiteFuncs>.Notify
 0001:000151D8       SQLiteTable3.{System.Generics.Collections}TList<SQLiteTable3.PSQLiteFuncs>.Create
 0001:0001525C       SQLiteTable3.{System.Generics.Collections}TList<SQLiteTable3.PSQLiteFuncs>.Create
 0001:00015304       SQLiteTable3.{System.Generics.Collections}TList<SQLiteTable3.PSQLiteFuncs>.Create
 0001:000153A4       SQLiteTable3.{System.Generics.Collections}TList<SQLiteTable3.PSQLiteFuncs>.Destroy
 0001:000153E0       SQLiteTable3.{System.Generics.Collections}TList<SQLiteTable3.PSQLiteFuncs>.Add
 0001:00015434       SQLiteTable3.{System.Generics.Collections}TList<SQLiteTable3.PSQLiteFuncs>.AddRange
 0001:0001545C       SQLiteTable3.{System.Generics.Collections}TList<SQLiteTable3.PSQLiteFuncs>.AddRange
 0001:00015480       SQLiteTable3.{System.Generics.Collections}TList<SQLiteTable3.PSQLiteFuncs>.AddRange
 0001:000154A4       SQLiteTable3.{System.Generics.Collections}TList<SQLiteTable3.PSQLiteFuncs>.Insert
 0001:00015564       SQLiteTable3.{System.Generics.Collections}TList<SQLiteTable3.PSQLiteFuncs>.InsertRange
 0001:00015674       SQLiteTable3.{System.Generics.Collections}TList<SQLiteTable3.PSQLiteFuncs>.InsertRange
 0001:000156F8       SQLiteTable3.{System.Generics.Collections}TList<SQLiteTable3.PSQLiteFuncs>.InsertRange
 0001:00015778       SQLiteTable3.{System.Generics.Collections}TList<SQLiteTable3.PSQLiteFuncs>.Remove
 0001:000157AC       SQLiteTable3.{System.Generics.Collections}TList<SQLiteTable3.PSQLiteFuncs>.Delete
 0001:000157CC       SQLiteTable3.{System.Generics.Collections}TList<SQLiteTable3.PSQLiteFuncs>.DeleteRange
 0001:00015944       SQLiteTable3.{System.Generics.Collections}TList<SQLiteTable3.PSQLiteFuncs>.Extract
 0001:00015990       SQLiteTable3.{System.Generics.Collections}TList<SQLiteTable3.PSQLiteFuncs>.Exchange
 0001:000159DC       SQLiteTable3.{System.Generics.Collections}TList<SQLiteTable3.PSQLiteFuncs>.Move
 0001:00015AC4       SQLiteTable3.{System.Generics.Collections}TList<SQLiteTable3.PSQLiteFuncs>.First
 0001:00015AE4       SQLiteTable3.{System.Generics.Collections}TList<SQLiteTable3.PSQLiteFuncs>.Last
 0001:00015B08       SQLiteTable3.{System.Generics.Collections}TList<SQLiteTable3.PSQLiteFuncs>.Clear
 0001:00015B28       SQLiteTable3.{System.Generics.Collections}TList<SQLiteTable3.PSQLiteFuncs>.Contains
 0001:00015B4C       SQLiteTable3.{System.Generics.Collections}TList<SQLiteTable3.PSQLiteFuncs>.IndexOf
 0001:00015BAC       SQLiteTable3.{System.Generics.Collections}TList<SQLiteTable3.PSQLiteFuncs>.LastIndexOf
 0001:00015C08       SQLiteTable3.{System.Generics.Collections}TList<SQLiteTable3.PSQLiteFuncs>.Reverse
 0001:00015C70       SQLiteTable3.{System.Generics.Collections}TList<SQLiteTable3.PSQLiteFuncs>.Sort
 0001:00015CAC       SQLiteTable3.{System.Generics.Collections}TList<SQLiteTable3.PSQLiteFuncs>.Sort
 0001:00015CE8       SQLiteTable3.{System.Generics.Collections}TList<SQLiteTable3.PSQLiteFuncs>.BinarySearch
 0001:00015D38       SQLiteTable3.{System.Generics.Collections}TList<SQLiteTable3.PSQLiteFuncs>.BinarySearch
 0001:00015D88       SQLiteTable3.{System.Generics.Collections}TList<SQLiteTable3.PSQLiteFuncs>.TrimExcess
 0001:00015DA0       SQLiteTable3.{System.Generics.Collections}TList<SQLiteTable3.PSQLiteFuncs>.ToArray
 0001:00015E04       SQLiteTable3.{System.Generics.Collections}TList<SQLiteTable3.PSQLiteFuncs>.GetEnumerator
 0001:00015E28       SQLiteTable3.{System.Generics.Collections}TList<SQLiteTable3.PSQLiteFuncs>.TEnumerator.GetCurrent
 0001:00015E4C       SQLiteTable3.{System.Generics.Collections}TList<SQLiteTable3.PSQLiteFuncs>.TEnumerator.DoGetCurrent
 0001:00015E68       SQLiteTable3.{System.Generics.Collections}TList<SQLiteTable3.PSQLiteFuncs>.TEnumerator.DoMoveNext
 0001:00015E84       SQLiteTable3.{System.Generics.Collections}TList<SQLiteTable3.PSQLiteFuncs>.TEnumerator.Create
 0001:00015EDC       SQLiteTable3.{System.Generics.Collections}TList<SQLiteTable3.PSQLiteFuncs>.TEnumerator.MoveNext
 0001:00015F1C       SQLiteTable3.{System.Generics.Collections}TPair<System.string,System.Integer>.Create
 0001:00015F48       SQLiteTable3.{System.Generics.Collections}TEnumerable<SQLiteTable3.TPair<System.string,System.Integer>>.ToArrayImpl
 0001:00016030       SQLiteTable3.{System.Generics.Collections}TEnumerable<SQLiteTable3.TPair<System.string,System.Integer>>.GetEnumerator
 0001:0001604C       SQLiteTable3.{System.Generics.Collections}TEnumerable<SQLiteTable3.TPair<System.string,System.Integer>>.ToArray
 0001:00016148       SQLiteTable3.{System.Generics.Collections}TEnumerator<SQLiteTable3.TPair<System.string,System.Integer>>.MoveNext
 0001:00016164       SQLiteTable3.{System.Generics.Collections}TDictionary<System.string,System.Integer>.SetCapacity
 0001:000161D0       SQLiteTable3.{System.Generics.Collections}TDictionary<System.string,System.Integer>.Rehash
 0001:00016320       SQLiteTable3.{System.Generics.Collections}TDictionary<System.string,System.Integer>.Grow
 0001:00016358       SQLiteTable3.{System.Generics.Collections}TDictionary<System.string,System.Integer>.GetBucketIndex
 0001:0001640C       SQLiteTable3.{System.Generics.Collections}TDictionary<System.string,System.Integer>.Hash
 0001:0001643C       SQLiteTable3.{System.Generics.Collections}TDictionary<System.string,System.Integer>.GetItem
 0001:0001649C       SQLiteTable3.{System.Generics.Collections}TDictionary<System.string,System.Integer>.SetItem
 0001:0001652C       SQLiteTable3.{System.Generics.Collections}TDictionary<System.string,System.Integer>.RehashAdd
 0001:00016594       SQLiteTable3.{System.Generics.Collections}TDictionary<System.string,System.Integer>.DoAdd
 0001:00016608       SQLiteTable3.{System.Generics.Collections}TDictionary<System.string,System.Integer>.DoSetValue
 0001:00016660       SQLiteTable3.{System.Generics.Collections}TDictionary<System.string,System.Integer>.DoRemove
 0001:000167C0       SQLiteTable3.{System.Generics.Collections}TDictionary<System.string,System.Integer>.DoGetEnumerator
 0001:000167DC       SQLiteTable3.{System.Generics.Collections}TDictionary<System.string,System.Integer>.KeyNotify
 0001:00016810       SQLiteTable3.{System.Generics.Collections}TDictionary<System.string,System.Integer>.ValueNotify
 0001:00016844       SQLiteTable3.{System.Generics.Collections}TDictionary<System.string,System.Integer>.Create
 0001:00016890       SQLiteTable3.{System.Generics.Collections}TDictionary<System.string,System.Integer>.Create
 0001:000168DC       SQLiteTable3.{System.Generics.Collections}TDictionary<System.string,System.Integer>.Create
 0001:000169AC       SQLiteTable3.{System.Generics.Collections}TDictionary<System.string,System.Integer>.Create
 0001:00016A9C       SQLiteTable3.{System.Generics.Collections}TDictionary<System.string,System.Integer>.Create
 0001:00016B90       SQLiteTable3.{System.Generics.Collections}TDictionary<System.string,System.Integer>.Destroy
 0001:00016BE0       SQLiteTable3.{System.Generics.Collections}TDictionary<System.string,System.Integer>.Add
 0001:00016C60       SQLiteTable3.{System.Generics.Collections}TDictionary<System.string,System.Integer>.Remove
 0001:00016C8C       SQLiteTable3.{System.Generics.Collections}TDictionary<System.string,System.Integer>.ExtractPair
 0001:00016CF0       SQLiteTable3.{System.Generics.Collections}TDictionary<System.string,System.Integer>.Clear
 0001:00016DDC       SQLiteTable3.{System.Generics.Collections}TDictionary<System.string,System.Integer>.TrimExcess
 0001:00016DF8       SQLiteTable3.{System.Generics.Collections}TDictionary<System.string,System.Integer>.TryGetValue
 0001:00016E58       SQLiteTable3.{System.Generics.Collections}TDictionary<System.string,System.Integer>.AddOrSetValue
 0001:00016ED0       SQLiteTable3.{System.Generics.Collections}TDictionary<System.string,System.Integer>.ContainsKey
 0001:00016F04       SQLiteTable3.{System.Generics.Collections}TDictionary<System.string,System.Integer>.ContainsValue
 0001:00016FB0       SQLiteTable3.{System.Generics.Collections}TDictionary<System.string,System.Integer>.ToArray
 0001:00016FD4       SQLiteTable3.{System.Generics.Collections}TDictionary<System.string,System.Integer>.GetKeys
 0001:0001700C       SQLiteTable3.{System.Generics.Collections}TDictionary<System.string,System.Integer>.GetValues
 0001:00017044       SQLiteTable3.{System.Generics.Collections}TDictionary<System.string,System.Integer>.GetEnumerator
 0001:00017068       SQLiteTable3.{System.Generics.Collections}TEnumerable<System.string>.ToArrayImpl
 0001:00017140       SQLiteTable3.{System.Generics.Collections}TEnumerable<System.string>.GetEnumerator
 0001:0001715C       SQLiteTable3.{System.Generics.Collections}TEnumerable<System.string>.ToArray
 0001:00017248       SQLiteTable3.{System.Generics.Collections}TEnumerator<System.string>.MoveNext
 0001:00017264       SQLiteTable3.{System.Generics.Collections}TDictionary<System.string,System.Integer>.TKeyCollection.GetCount
 0001:00017280       SQLiteTable3.{System.Generics.Collections}TDictionary<System.string,System.Integer>.TKeyCollection.DoGetEnumerator
 0001:0001729C       SQLiteTable3.{System.Generics.Collections}TDictionary<System.string,System.Integer>.TKeyCollection.Create
 0001:000172EC       SQLiteTable3.{System.Generics.Collections}TDictionary<System.string,System.Integer>.TKeyCollection.GetEnumerator
 0001:00017314       SQLiteTable3.{System.Generics.Collections}TDictionary<System.string,System.Integer>.TKeyCollection.ToArray
 0001:00017338       SQLiteTable3.{System.Generics.Collections}TDictionary<System.string,System.Integer>.TKeyEnumerator.GetCurrent
 0001:00017368       SQLiteTable3.{System.Generics.Collections}TDictionary<System.string,System.Integer>.TKeyEnumerator.DoGetCurrent
 0001:00017384       SQLiteTable3.{System.Generics.Collections}TDictionary<System.string,System.Integer>.TKeyEnumerator.DoMoveNext
 0001:000173A0       SQLiteTable3.{System.Generics.Collections}TDictionary<System.string,System.Integer>.TKeyEnumerator.Create
 0001:000173F8       SQLiteTable3.{System.Generics.Collections}TDictionary<System.string,System.Integer>.TKeyEnumerator.MoveNext
 0001:0001744C       SQLiteTable3.{System.Generics.Collections}TEnumerable<System.Integer>.ToArrayImpl
 0001:000174EC       SQLiteTable3.{System.Generics.Collections}TEnumerable<System.Integer>.GetEnumerator
 0001:00017508       SQLiteTable3.{System.Generics.Collections}TEnumerable<System.Integer>.ToArray
 0001:000175C4       SQLiteTable3.{System.Generics.Collections}TEnumerator<System.Integer>.MoveNext
 0001:000175E0       SQLiteTable3.{System.Generics.Collections}TDictionary<System.string,System.Integer>.TValueCollection.GetCount
 0001:000175FC       SQLiteTable3.{System.Generics.Collections}TDictionary<System.string,System.Integer>.TValueCollection.DoGetEnumerator
 0001:00017618       SQLiteTable3.{System.Generics.Collections}TDictionary<System.string,System.Integer>.TValueCollection.Create
 0001:00017668       SQLiteTable3.{System.Generics.Collections}TDictionary<System.string,System.Integer>.TValueCollection.GetEnumerator
 0001:00017690       SQLiteTable3.{System.Generics.Collections}TDictionary<System.string,System.Integer>.TValueCollection.ToArray
 0001:000176B4       SQLiteTable3.{System.Generics.Collections}TDictionary<System.string,System.Integer>.TValueEnumerator.GetCurrent
 0001:000176E0       SQLiteTable3.{System.Generics.Collections}TDictionary<System.string,System.Integer>.TValueEnumerator.DoGetCurrent
 0001:000176FC       SQLiteTable3.{System.Generics.Collections}TDictionary<System.string,System.Integer>.TValueEnumerator.DoMoveNext
 0001:00017718       SQLiteTable3.{System.Generics.Collections}TDictionary<System.string,System.Integer>.TValueEnumerator.Create
 0001:00017770       SQLiteTable3.{System.Generics.Collections}TDictionary<System.string,System.Integer>.TValueEnumerator.MoveNext
 0001:000177C4       SQLiteTable3.{System.Generics.Collections}TDictionary<System.string,System.Integer>.TPairEnumerator.GetCurrent
 0001:00017810       SQLiteTable3.{System.Generics.Collections}TDictionary<System.string,System.Integer>.TPairEnumerator.DoGetCurrent
 0001:0001782C       SQLiteTable3.{System.Generics.Collections}TDictionary<System.string,System.Integer>.TPairEnumerator.DoMoveNext
 0001:00017848       SQLiteTable3.{System.Generics.Collections}TDictionary<System.string,System.Integer>.TPairEnumerator.Create
 0001:000178A0       SQLiteTable3.{System.Generics.Collections}TDictionary<System.string,System.Integer>.TPairEnumerator.MoveNext
 0001:000178F4       SQLiteTable3.{System.Generics.Collections}TEnumerable<SQLiteTable3.TSQliteParam>.ToArrayImpl
 0001:00017994       SQLiteTable3.{System.Generics.Collections}TEnumerable<SQLiteTable3.TSQliteParam>.GetEnumerator
 0001:000179B0       SQLiteTable3.{System.Generics.Collections}TEnumerable<SQLiteTable3.TSQliteParam>.ToArray
 0001:00017A6C       SQLiteTable3.{System.Generics.Collections}TEnumerator<SQLiteTable3.TSQliteParam>.MoveNext
 0001:00017A88       SQLiteTable3.{System.Generics.Collections}TList<SQLiteTable3.TSQliteParam>.GetCapacity
 0001:00017AA8       SQLiteTable3.{System.Generics.Collections}TList<SQLiteTable3.TSQliteParam>.SetCapacity
 0001:00017AEC       SQLiteTable3.{System.Generics.Collections}TList<SQLiteTable3.TSQliteParam>.SetCount
 0001:00017B5C       SQLiteTable3.{System.Generics.Collections}TList<SQLiteTable3.TSQliteParam>.GetItem
 0001:00017BA8       SQLiteTable3.{System.Generics.Collections}TList<SQLiteTable3.TSQliteParam>.SetItem
 0001:00017C20       SQLiteTable3.{System.Generics.Collections}TList<SQLiteTable3.TSQliteParam>.Grow
 0001:00017C74       SQLiteTable3.{System.Generics.Collections}TList<SQLiteTable3.TSQliteParam>.GrowCheck
 0001:00017CAC       SQLiteTable3.{System.Generics.Collections}TList<SQLiteTable3.TSQliteParam>.DoDelete
 0001:00017D6C       SQLiteTable3.{System.Generics.Collections}TList<SQLiteTable3.TSQliteParam>.DoGetEnumerator
 0001:00017D88       SQLiteTable3.{System.Generics.Collections}TList<SQLiteTable3.TSQliteParam>.Notify
 0001:00017DBC       SQLiteTable3.{System.Generics.Collections}TList<SQLiteTable3.TSQliteParam>.Create
 0001:00017E40       SQLiteTable3.{System.Generics.Collections}TList<SQLiteTable3.TSQliteParam>.Create
 0001:00017EE8       SQLiteTable3.{System.Generics.Collections}TList<SQLiteTable3.TSQliteParam>.Create
 0001:00017F88       SQLiteTable3.{System.Generics.Collections}TList<SQLiteTable3.TSQliteParam>.Destroy
 0001:00017FC4       SQLiteTable3.{System.Generics.Collections}TList<SQLiteTable3.TSQliteParam>.Add
 0001:00018018       SQLiteTable3.{System.Generics.Collections}TList<SQLiteTable3.TSQliteParam>.AddRange
 0001:00018040       SQLiteTable3.{System.Generics.Collections}TList<SQLiteTable3.TSQliteParam>.AddRange
 0001:00018064       SQLiteTable3.{System.Generics.Collections}TList<SQLiteTable3.TSQliteParam>.AddRange
 0001:00018088       SQLiteTable3.{System.Generics.Collections}TList<SQLiteTable3.TSQliteParam>.Insert
 0001:00018148       SQLiteTable3.{System.Generics.Collections}TList<SQLiteTable3.TSQliteParam>.InsertRange
 0001:00018258       SQLiteTable3.{System.Generics.Collections}TList<SQLiteTable3.TSQliteParam>.InsertRange
 0001:000182DC       SQLiteTable3.{System.Generics.Collections}TList<SQLiteTable3.TSQliteParam>.InsertRange
 0001:0001835C       SQLiteTable3.{System.Generics.Collections}TList<SQLiteTable3.TSQliteParam>.Remove
 0001:00018390       SQLiteTable3.{System.Generics.Collections}TList<SQLiteTable3.TSQliteParam>.Delete
 0001:000183B0       SQLiteTable3.{System.Generics.Collections}TList<SQLiteTable3.TSQliteParam>.DeleteRange
 0001:00018528       SQLiteTable3.{System.Generics.Collections}TList<SQLiteTable3.TSQliteParam>.Extract
 0001:00018574       SQLiteTable3.{System.Generics.Collections}TList<SQLiteTable3.TSQliteParam>.Exchange
 0001:000185C0       SQLiteTable3.{System.Generics.Collections}TList<SQLiteTable3.TSQliteParam>.Move
 0001:000186A8       SQLiteTable3.{System.Generics.Collections}TList<SQLiteTable3.TSQliteParam>.First
 0001:000186C8       SQLiteTable3.{System.Generics.Collections}TList<SQLiteTable3.TSQliteParam>.Last
 0001:000186EC       SQLiteTable3.{System.Generics.Collections}TList<SQLiteTable3.TSQliteParam>.Clear
 0001:0001870C       SQLiteTable3.{System.Generics.Collections}TList<SQLiteTable3.TSQliteParam>.Contains
 0001:00018730       SQLiteTable3.{System.Generics.Collections}TList<SQLiteTable3.TSQliteParam>.IndexOf
 0001:00018790       SQLiteTable3.{System.Generics.Collections}TList<SQLiteTable3.TSQliteParam>.LastIndexOf
 0001:000187EC       SQLiteTable3.{System.Generics.Collections}TList<SQLiteTable3.TSQliteParam>.Reverse
 0001:00018854       SQLiteTable3.{System.Generics.Collections}TList<SQLiteTable3.TSQliteParam>.Sort
 0001:00018890       SQLiteTable3.{System.Generics.Collections}TList<SQLiteTable3.TSQliteParam>.Sort
 0001:000188CC       SQLiteTable3.{System.Generics.Collections}TList<SQLiteTable3.TSQliteParam>.BinarySearch
 0001:0001891C       SQLiteTable3.{System.Generics.Collections}TList<SQLiteTable3.TSQliteParam>.BinarySearch
 0001:0001896C       SQLiteTable3.{System.Generics.Collections}TList<SQLiteTable3.TSQliteParam>.TrimExcess
 0001:00018984       SQLiteTable3.{System.Generics.Collections}TList<SQLiteTable3.TSQliteParam>.ToArray
 0001:000189E8       SQLiteTable3.{System.Generics.Collections}TList<SQLiteTable3.TSQliteParam>.GetEnumerator
 0001:00018A0C       SQLiteTable3.{System.Generics.Collections}TList<SQLiteTable3.TSQliteParam>.TEnumerator.GetCurrent
 0001:00018A30       SQLiteTable3.{System.Generics.Collections}TList<SQLiteTable3.TSQliteParam>.TEnumerator.DoGetCurrent
 0001:00018A4C       SQLiteTable3.{System.Generics.Collections}TList<SQLiteTable3.TSQliteParam>.TEnumerator.DoMoveNext
 0001:00018A68       SQLiteTable3.{System.Generics.Collections}TList<SQLiteTable3.TSQliteParam>.TEnumerator.Create
 0001:00018AC0       SQLiteTable3.{System.Generics.Collections}TList<SQLiteTable3.TSQliteParam>.TEnumerator.MoveNext
 0001:00018B00       SQLiteTable3.{System.Generics.Collections}TObjectList<SQLiteTable3.TSQliteParam>.Notify
 0001:00018B38       SQLiteTable3.{System.Generics.Collections}TObjectList<SQLiteTable3.TSQliteParam>.Create
 0001:00018B88       SQLiteTable3.{System.Generics.Collections}TObjectList<SQLiteTable3.TSQliteParam>.Create
 0001:00018BDC       SQLiteTable3.{System.Generics.Collections}TObjectList<SQLiteTable3.TSQliteParam>.Create
 0001:00018C30       SQLiteTable3.{System.Generics.Collections}TEnumerable<SQLiteTable3.TSQLiteField>.ToArrayImpl
 0001:00018CD0       SQLiteTable3.{System.Generics.Collections}TEnumerable<SQLiteTable3.TSQLiteField>.GetEnumerator
 0001:00018CEC       SQLiteTable3.{System.Generics.Collections}TEnumerable<SQLiteTable3.TSQLiteField>.ToArray
 0001:00018DA8       SQLiteTable3.{System.Generics.Collections}TEnumerator<SQLiteTable3.TSQLiteField>.MoveNext
 0001:00018DC4       SQLiteTable3.{System.Generics.Collections}TList<SQLiteTable3.TSQLiteField>.GetCapacity
 0001:00018DE4       SQLiteTable3.{System.Generics.Collections}TList<SQLiteTable3.TSQLiteField>.SetCapacity
 0001:00018E28       SQLiteTable3.{System.Generics.Collections}TList<SQLiteTable3.TSQLiteField>.SetCount
 0001:00018E98       SQLiteTable3.{System.Generics.Collections}TList<SQLiteTable3.TSQLiteField>.GetItem
 0001:00018EE4       SQLiteTable3.{System.Generics.Collections}TList<SQLiteTable3.TSQLiteField>.SetItem
 0001:00018F5C       SQLiteTable3.{System.Generics.Collections}TList<SQLiteTable3.TSQLiteField>.Grow
 0001:00018FB0       SQLiteTable3.{System.Generics.Collections}TList<SQLiteTable3.TSQLiteField>.GrowCheck
 0001:00018FE8       SQLiteTable3.{System.Generics.Collections}TList<SQLiteTable3.TSQLiteField>.DoDelete
 0001:000190A8       SQLiteTable3.{System.Generics.Collections}TList<SQLiteTable3.TSQLiteField>.DoGetEnumerator
 0001:000190C4       SQLiteTable3.{System.Generics.Collections}TList<SQLiteTable3.TSQLiteField>.Notify
 0001:000190F8       SQLiteTable3.{System.Generics.Collections}TList<SQLiteTable3.TSQLiteField>.Create
 0001:0001917C       SQLiteTable3.{System.Generics.Collections}TList<SQLiteTable3.TSQLiteField>.Create
 0001:00019224       SQLiteTable3.{System.Generics.Collections}TList<SQLiteTable3.TSQLiteField>.Create
 0001:000192C4       SQLiteTable3.{System.Generics.Collections}TList<SQLiteTable3.TSQLiteField>.Destroy
 0001:00019300       SQLiteTable3.{System.Generics.Collections}TList<SQLiteTable3.TSQLiteField>.Add
 0001:00019354       SQLiteTable3.{System.Generics.Collections}TList<SQLiteTable3.TSQLiteField>.AddRange
 0001:0001937C       SQLiteTable3.{System.Generics.Collections}TList<SQLiteTable3.TSQLiteField>.AddRange
 0001:000193A0       SQLiteTable3.{System.Generics.Collections}TList<SQLiteTable3.TSQLiteField>.AddRange
 0001:000193C4       SQLiteTable3.{System.Generics.Collections}TList<SQLiteTable3.TSQLiteField>.Insert
 0001:00019484       SQLiteTable3.{System.Generics.Collections}TList<SQLiteTable3.TSQLiteField>.InsertRange
 0001:00019594       SQLiteTable3.{System.Generics.Collections}TList<SQLiteTable3.TSQLiteField>.InsertRange
 0001:00019618       SQLiteTable3.{System.Generics.Collections}TList<SQLiteTable3.TSQLiteField>.InsertRange
 0001:00019698       SQLiteTable3.{System.Generics.Collections}TList<SQLiteTable3.TSQLiteField>.Remove
 0001:000196CC       SQLiteTable3.{System.Generics.Collections}TList<SQLiteTable3.TSQLiteField>.Delete
 0001:000196EC       SQLiteTable3.{System.Generics.Collections}TList<SQLiteTable3.TSQLiteField>.DeleteRange
 0001:00019864       SQLiteTable3.{System.Generics.Collections}TList<SQLiteTable3.TSQLiteField>.Extract
 0001:000198B0       SQLiteTable3.{System.Generics.Collections}TList<SQLiteTable3.TSQLiteField>.Exchange
 0001:000198FC       SQLiteTable3.{System.Generics.Collections}TList<SQLiteTable3.TSQLiteField>.Move
 0001:000199E4       SQLiteTable3.{System.Generics.Collections}TList<SQLiteTable3.TSQLiteField>.First
 0001:00019A04       SQLiteTable3.{System.Generics.Collections}TList<SQLiteTable3.TSQLiteField>.Last
 0001:00019A28       SQLiteTable3.{System.Generics.Collections}TList<SQLiteTable3.TSQLiteField>.Clear
 0001:00019A48       SQLiteTable3.{System.Generics.Collections}TList<SQLiteTable3.TSQLiteField>.Contains
 0001:00019A6C       SQLiteTable3.{System.Generics.Collections}TList<SQLiteTable3.TSQLiteField>.IndexOf
 0001:00019ACC       SQLiteTable3.{System.Generics.Collections}TList<SQLiteTable3.TSQLiteField>.LastIndexOf
 0001:00019B28       SQLiteTable3.{System.Generics.Collections}TList<SQLiteTable3.TSQLiteField>.Reverse
 0001:00019B90       SQLiteTable3.{System.Generics.Collections}TList<SQLiteTable3.TSQLiteField>.Sort
 0001:00019BCC       SQLiteTable3.{System.Generics.Collections}TList<SQLiteTable3.TSQLiteField>.Sort
 0001:00019C08       SQLiteTable3.{System.Generics.Collections}TList<SQLiteTable3.TSQLiteField>.BinarySearch
 0001:00019C58       SQLiteTable3.{System.Generics.Collections}TList<SQLiteTable3.TSQLiteField>.BinarySearch
 0001:00019CA8       SQLiteTable3.{System.Generics.Collections}TList<SQLiteTable3.TSQLiteField>.TrimExcess
 0001:00019CC0       SQLiteTable3.{System.Generics.Collections}TList<SQLiteTable3.TSQLiteField>.ToArray
 0001:00019D24       SQLiteTable3.{System.Generics.Collections}TList<SQLiteTable3.TSQLiteField>.GetEnumerator
 0001:00019D48       SQLiteTable3.{System.Generics.Collections}TList<SQLiteTable3.TSQLiteField>.TEnumerator.GetCurrent
 0001:00019D6C       SQLiteTable3.{System.Generics.Collections}TList<SQLiteTable3.TSQLiteField>.TEnumerator.DoGetCurrent
 0001:00019D88       SQLiteTable3.{System.Generics.Collections}TList<SQLiteTable3.TSQLiteField>.TEnumerator.DoMoveNext
 0001:00019DA4       SQLiteTable3.{System.Generics.Collections}TList<SQLiteTable3.TSQLiteField>.TEnumerator.Create
 0001:00019DFC       SQLiteTable3.{System.Generics.Collections}TList<SQLiteTable3.TSQLiteField>.TEnumerator.MoveNext
 0001:00019E3C       SQLiteTable3.{System.Generics.Collections}TObjectList<SQLiteTable3.TSQLiteField>.Notify
 0001:00019E74       SQLiteTable3.{System.Generics.Collections}TObjectList<SQLiteTable3.TSQLiteField>.Create
 0001:00019EC4       SQLiteTable3.{System.Generics.Collections}TObjectList<SQLiteTable3.TSQLiteField>.Create
 0001:00019F18       SQLiteTable3.{System.Generics.Collections}TObjectList<SQLiteTable3.TSQLiteField>.Create
 0001:00019F6C       SQLiteTable3.{System.Generics.Defaults}TComparer<SQLiteTable3.PSQLiteFuncs>.Default
 0001:00019F98       SQLiteTable3.{System.Generics.Defaults}TComparer<SQLiteTable3.PSQLiteFuncs>.Construct
 0001:00019FCC       SQLiteTable3.TArray.Sort<SQLiteTable3.PSQLiteFuncs>
 0001:0001A050       SQLiteTable3.TArray.BinarySearch<SQLiteTable3.PSQLiteFuncs>
 0001:0001A138       SQLiteTable3.{System.Generics.Collections}TList<SQLiteTable3.TPair<System.string,System.Integer>>.GetCapacity
 0001:0001A158       SQLiteTable3.{System.Generics.Collections}TList<SQLiteTable3.TPair<System.string,System.Integer>>.SetCapacity
 0001:0001A19C       SQLiteTable3.{System.Generics.Collections}TList<SQLiteTable3.TPair<System.string,System.Integer>>.SetCount
 0001:0001A20C       SQLiteTable3.{System.Generics.Collections}TList<SQLiteTable3.TPair<System.string,System.Integer>>.GetItem
 0001:0001A264       SQLiteTable3.{System.Generics.Collections}TList<SQLiteTable3.TPair<System.string,System.Integer>>.SetItem
 0001:0001A330       SQLiteTable3.{System.Generics.Collections}TList<SQLiteTable3.TPair<System.string,System.Integer>>.Grow
 0001:0001A384       SQLiteTable3.{System.Generics.Collections}TList<SQLiteTable3.TPair<System.string,System.Integer>>.GrowCheck
 0001:0001A3BC       SQLiteTable3.{System.Generics.Collections}TList<SQLiteTable3.TPair<System.string,System.Integer>>.DoDelete
 0001:0001A4D8       SQLiteTable3.{System.Generics.Collections}TList<SQLiteTable3.TPair<System.string,System.Integer>>.DoGetEnumerator
 0001:0001A4F4       SQLiteTable3.{System.Generics.Collections}TList<SQLiteTable3.TPair<System.string,System.Integer>>.Notify
 0001:0001A528       SQLiteTable3.{System.Generics.Collections}TList<SQLiteTable3.TPair<System.string,System.Integer>>.Create
 0001:0001A5AC       SQLiteTable3.{System.Generics.Collections}TList<SQLiteTable3.TPair<System.string,System.Integer>>.Create
 0001:0001A654       SQLiteTable3.{System.Generics.Collections}TList<SQLiteTable3.TPair<System.string,System.Integer>>.Create
 0001:0001A6F4       SQLiteTable3.{System.Generics.Collections}TList<SQLiteTable3.TPair<System.string,System.Integer>>.Destroy
 0001:0001A730       SQLiteTable3.{System.Generics.Collections}TList<SQLiteTable3.TPair<System.string,System.Integer>>.Add
 0001:0001A790       SQLiteTable3.{System.Generics.Collections}TList<SQLiteTable3.TPair<System.string,System.Integer>>.AddRange
 0001:0001A7B8       SQLiteTable3.{System.Generics.Collections}TList<SQLiteTable3.TPair<System.string,System.Integer>>.AddRange
 0001:0001A7DC       SQLiteTable3.{System.Generics.Collections}TList<SQLiteTable3.TPair<System.string,System.Integer>>.AddRange
 0001:0001A800       SQLiteTable3.{System.Generics.Collections}TList<SQLiteTable3.TPair<System.string,System.Integer>>.Insert
 0001:0001A8C8       SQLiteTable3.{System.Generics.Collections}TList<SQLiteTable3.TPair<System.string,System.Integer>>.InsertRange
 0001:0001A9E4       SQLiteTable3.{System.Generics.Collections}TList<SQLiteTable3.TPair<System.string,System.Integer>>.InsertRange
 0001:0001AA84       SQLiteTable3.{System.Generics.Collections}TList<SQLiteTable3.TPair<System.string,System.Integer>>.InsertRange
 0001:0001AB44       SQLiteTable3.{System.Generics.Collections}TList<SQLiteTable3.TPair<System.string,System.Integer>>.Remove
 0001:0001AB78       SQLiteTable3.{System.Generics.Collections}TList<SQLiteTable3.TPair<System.string,System.Integer>>.Delete
 0001:0001AB98       SQLiteTable3.{System.Generics.Collections}TList<SQLiteTable3.TPair<System.string,System.Integer>>.DeleteRange
 0001:0001AD10       SQLiteTable3.{System.Generics.Collections}TList<SQLiteTable3.TPair<System.string,System.Integer>>.Extract
 0001:0001AD78       SQLiteTable3.{System.Generics.Collections}TList<SQLiteTable3.TPair<System.string,System.Integer>>.Exchange
 0001:0001AE24       SQLiteTable3.{System.Generics.Collections}TList<SQLiteTable3.TPair<System.string,System.Integer>>.Move
 0001:0001AF70       SQLiteTable3.{System.Generics.Collections}TList<SQLiteTable3.TPair<System.string,System.Integer>>.First
 0001:0001AF90       SQLiteTable3.{System.Generics.Collections}TList<SQLiteTable3.TPair<System.string,System.Integer>>.Last
 0001:0001AFB4       SQLiteTable3.{System.Generics.Collections}TList<SQLiteTable3.TPair<System.string,System.Integer>>.Clear
 0001:0001AFD4       SQLiteTable3.{System.Generics.Collections}TList<SQLiteTable3.TPair<System.string,System.Integer>>.Contains
 0001:0001AFF8       SQLiteTable3.{System.Generics.Collections}TList<SQLiteTable3.TPair<System.string,System.Integer>>.IndexOf
 0001:0001B058       SQLiteTable3.{System.Generics.Collections}TList<SQLiteTable3.TPair<System.string,System.Integer>>.LastIndexOf
 0001:0001B0B4       SQLiteTable3.{System.Generics.Collections}TList<SQLiteTable3.TPair<System.string,System.Integer>>.Reverse
 0001:0001B17C       SQLiteTable3.{System.Generics.Collections}TList<SQLiteTable3.TPair<System.string,System.Integer>>.Sort
 0001:0001B1B8       SQLiteTable3.{System.Generics.Collections}TList<SQLiteTable3.TPair<System.string,System.Integer>>.Sort
 0001:0001B1F4       SQLiteTable3.{System.Generics.Collections}TList<SQLiteTable3.TPair<System.string,System.Integer>>.BinarySearch
 0001:0001B244       SQLiteTable3.{System.Generics.Collections}TList<SQLiteTable3.TPair<System.string,System.Integer>>.BinarySearch
 0001:0001B294       SQLiteTable3.{System.Generics.Collections}TList<SQLiteTable3.TPair<System.string,System.Integer>>.TrimExcess
 0001:0001B2AC       SQLiteTable3.{System.Generics.Collections}TList<SQLiteTable3.TPair<System.string,System.Integer>>.ToArray
 0001:0001B358       SQLiteTable3.{System.Generics.Collections}TList<SQLiteTable3.TPair<System.string,System.Integer>>.GetEnumerator
 0001:0001B37C       SQLiteTable3.{System.Generics.Collections}TList<SQLiteTable3.TPair<System.string,System.Integer>>.TEnumerator.GetCurrent
 0001:0001B3A0       SQLiteTable3.{System.Generics.Collections}TList<SQLiteTable3.TPair<System.string,System.Integer>>.TEnumerator.DoGetCurrent
 0001:0001B3BC       SQLiteTable3.{System.Generics.Collections}TList<SQLiteTable3.TPair<System.string,System.Integer>>.TEnumerator.DoMoveNext
 0001:0001B3D8       SQLiteTable3.{System.Generics.Collections}TList<SQLiteTable3.TPair<System.string,System.Integer>>.TEnumerator.Create
 0001:0001B430       SQLiteTable3.{System.Generics.Collections}TList<SQLiteTable3.TPair<System.string,System.Integer>>.TEnumerator.MoveNext
 0001:0001B470       SQLiteTable3.{System.Generics.Defaults}TEqualityComparer<System.string>.Default
 0001:0001B498       SQLiteTable3.{System.Generics.Defaults}TEqualityComparer<System.Integer>.Default
 0001:0001B4C0       SQLiteTable3.{System.Generics.Collections}TList<System.string>.GetCapacity
 0001:0001B4E0       SQLiteTable3.{System.Generics.Collections}TList<System.string>.SetCapacity
 0001:0001B524       SQLiteTable3.{System.Generics.Collections}TList<System.string>.SetCount
 0001:0001B594       SQLiteTable3.{System.Generics.Collections}TList<System.string>.GetItem
 0001:0001B5E4       SQLiteTable3.{System.Generics.Collections}TList<System.string>.SetItem
 0001:0001B694       SQLiteTable3.{System.Generics.Collections}TList<System.string>.Grow
 0001:0001B6E8       SQLiteTable3.{System.Generics.Collections}TList<System.string>.GrowCheck
 0001:0001B720       SQLiteTable3.{System.Generics.Collections}TList<System.string>.DoDelete
 0001:0001B818       SQLiteTable3.{System.Generics.Collections}TList<System.string>.DoGetEnumerator
 0001:0001B834       SQLiteTable3.{System.Generics.Collections}TList<System.string>.Notify
 0001:0001B868       SQLiteTable3.{System.Generics.Collections}TList<System.string>.Create
 0001:0001B8EC       SQLiteTable3.{System.Generics.Collections}TList<System.string>.Create
 0001:0001B994       SQLiteTable3.{System.Generics.Collections}TList<System.string>.Create
 0001:0001BA34       SQLiteTable3.{System.Generics.Collections}TList<System.string>.Destroy
 0001:0001BA70       SQLiteTable3.{System.Generics.Collections}TList<System.string>.Add
 0001:0001BAC8       SQLiteTable3.{System.Generics.Collections}TList<System.string>.AddRange
 0001:0001BAF0       SQLiteTable3.{System.Generics.Collections}TList<System.string>.AddRange
 0001:0001BB14       SQLiteTable3.{System.Generics.Collections}TList<System.string>.AddRange
 0001:0001BB38       SQLiteTable3.{System.Generics.Collections}TList<System.string>.Insert
 0001:0001BBFC       SQLiteTable3.{System.Generics.Collections}TList<System.string>.InsertRange
 0001:0001BD14       SQLiteTable3.{System.Generics.Collections}TList<System.string>.InsertRange
 0001:0001BDA4       SQLiteTable3.{System.Generics.Collections}TList<System.string>.InsertRange
 0001:0001BE58       SQLiteTable3.{System.Generics.Collections}TList<System.string>.Remove
 0001:0001BE8C       SQLiteTable3.{System.Generics.Collections}TList<System.string>.Delete
 0001:0001BEAC       SQLiteTable3.{System.Generics.Collections}TList<System.string>.DeleteRange
 0001:0001C024       SQLiteTable3.{System.Generics.Collections}TList<System.string>.Extract
 0001:0001C078       SQLiteTable3.{System.Generics.Collections}TList<System.string>.Exchange
 0001:0001C104       SQLiteTable3.{System.Generics.Collections}TList<System.string>.Move
 0001:0001C228       SQLiteTable3.{System.Generics.Collections}TList<System.string>.First
 0001:0001C248       SQLiteTable3.{System.Generics.Collections}TList<System.string>.Last
 0001:0001C26C       SQLiteTable3.{System.Generics.Collections}TList<System.string>.Clear
 0001:0001C28C       SQLiteTable3.{System.Generics.Collections}TList<System.string>.Contains
 0001:0001C2B0       SQLiteTable3.{System.Generics.Collections}TList<System.string>.IndexOf
 0001:0001C310       SQLiteTable3.{System.Generics.Collections}TList<System.string>.LastIndexOf
 0001:0001C36C       SQLiteTable3.{System.Generics.Collections}TList<System.string>.Reverse
 0001:0001C414       SQLiteTable3.{System.Generics.Collections}TList<System.string>.Sort
 0001:0001C450       SQLiteTable3.{System.Generics.Collections}TList<System.string>.Sort
 0001:0001C48C       SQLiteTable3.{System.Generics.Collections}TList<System.string>.BinarySearch
 0001:0001C4DC       SQLiteTable3.{System.Generics.Collections}TList<System.string>.BinarySearch
 0001:0001C52C       SQLiteTable3.{System.Generics.Collections}TList<System.string>.TrimExcess
 0001:0001C544       SQLiteTable3.{System.Generics.Collections}TList<System.string>.ToArray
 0001:0001C5E0       SQLiteTable3.{System.Generics.Collections}TList<System.string>.GetEnumerator
 0001:0001C604       SQLiteTable3.{System.Generics.Collections}TList<System.string>.TEnumerator.GetCurrent
 0001:0001C628       SQLiteTable3.{System.Generics.Collections}TList<System.string>.TEnumerator.DoGetCurrent
 0001:0001C644       SQLiteTable3.{System.Generics.Collections}TList<System.string>.TEnumerator.DoMoveNext
 0001:0001C660       SQLiteTable3.{System.Generics.Collections}TList<System.string>.TEnumerator.Create
 0001:0001C6B8       SQLiteTable3.{System.Generics.Collections}TList<System.string>.TEnumerator.MoveNext
 0001:0001C6F8       SQLiteTable3.{System.Generics.Collections}TList<System.Integer>.GetCapacity
 0001:0001C718       SQLiteTable3.{System.Generics.Collections}TList<System.Integer>.SetCapacity
 0001:0001C75C       SQLiteTable3.{System.Generics.Collections}TList<System.Integer>.SetCount
 0001:0001C7CC       SQLiteTable3.{System.Generics.Collections}TList<System.Integer>.GetItem
 0001:0001C818       SQLiteTable3.{System.Generics.Collections}TList<System.Integer>.SetItem
 0001:0001C890       SQLiteTable3.{System.Generics.Collections}TList<System.Integer>.Grow
 0001:0001C8E4       SQLiteTable3.{System.Generics.Collections}TList<System.Integer>.GrowCheck
 0001:0001C91C       SQLiteTable3.{System.Generics.Collections}TList<System.Integer>.DoDelete
 0001:0001C9DC       SQLiteTable3.{System.Generics.Collections}TList<System.Integer>.DoGetEnumerator
 0001:0001C9F8       SQLiteTable3.{System.Generics.Collections}TList<System.Integer>.Notify
 0001:0001CA2C       SQLiteTable3.{System.Generics.Collections}TList<System.Integer>.Create
 0001:0001CAB0       SQLiteTable3.{System.Generics.Collections}TList<System.Integer>.Create
 0001:0001CB58       SQLiteTable3.{System.Generics.Collections}TList<System.Integer>.Create
 0001:0001CBF8       SQLiteTable3.{System.Generics.Collections}TList<System.Integer>.Destroy
 0001:0001CC34       SQLiteTable3.{System.Generics.Collections}TList<System.Integer>.Add
 0001:0001CC88       SQLiteTable3.{System.Generics.Collections}TList<System.Integer>.AddRange
 0001:0001CCB0       SQLiteTable3.{System.Generics.Collections}TList<System.Integer>.AddRange
 0001:0001CCD4       SQLiteTable3.{System.Generics.Collections}TList<System.Integer>.AddRange
 0001:0001CCF8       SQLiteTable3.{System.Generics.Collections}TList<System.Integer>.Insert
 0001:0001CDB8       SQLiteTable3.{System.Generics.Collections}TList<System.Integer>.InsertRange
 0001:0001CEC8       SQLiteTable3.{System.Generics.Collections}TList<System.Integer>.InsertRange
 0001:0001CF4C       SQLiteTable3.{System.Generics.Collections}TList<System.Integer>.InsertRange
 0001:0001CFCC       SQLiteTable3.{System.Generics.Collections}TList<System.Integer>.Remove
 0001:0001D000       SQLiteTable3.{System.Generics.Collections}TList<System.Integer>.Delete
 0001:0001D020       SQLiteTable3.{System.Generics.Collections}TList<System.Integer>.DeleteRange
 0001:0001D198       SQLiteTable3.{System.Generics.Collections}TList<System.Integer>.Extract
 0001:0001D1E4       SQLiteTable3.{System.Generics.Collections}TList<System.Integer>.Exchange
 0001:0001D230       SQLiteTable3.{System.Generics.Collections}TList<System.Integer>.Move
 0001:0001D318       SQLiteTable3.{System.Generics.Collections}TList<System.Integer>.First
 0001:0001D338       SQLiteTable3.{System.Generics.Collections}TList<System.Integer>.Last
 0001:0001D35C       SQLiteTable3.{System.Generics.Collections}TList<System.Integer>.Clear
 0001:0001D37C       SQLiteTable3.{System.Generics.Collections}TList<System.Integer>.Contains
 0001:0001D3A0       SQLiteTable3.{System.Generics.Collections}TList<System.Integer>.IndexOf
 0001:0001D400       SQLiteTable3.{System.Generics.Collections}TList<System.Integer>.LastIndexOf
 0001:0001D45C       SQLiteTable3.{System.Generics.Collections}TList<System.Integer>.Reverse
 0001:0001D4C4       SQLiteTable3.{System.Generics.Collections}TList<System.Integer>.Sort
 0001:0001D500       SQLiteTable3.{System.Generics.Collections}TList<System.Integer>.Sort
 0001:0001D53C       SQLiteTable3.{System.Generics.Collections}TList<System.Integer>.BinarySearch
 0001:0001D58C       SQLiteTable3.{System.Generics.Collections}TList<System.Integer>.BinarySearch
 0001:0001D5DC       SQLiteTable3.{System.Generics.Collections}TList<System.Integer>.TrimExcess
 0001:0001D5F4       SQLiteTable3.{System.Generics.Collections}TList<System.Integer>.ToArray
 0001:0001D658       SQLiteTable3.{System.Generics.Collections}TList<System.Integer>.GetEnumerator
 0001:0001D67C       SQLiteTable3.{System.Generics.Collections}TList<System.Integer>.TEnumerator.GetCurrent
 0001:0001D6A0       SQLiteTable3.{System.Generics.Collections}TList<System.Integer>.TEnumerator.DoGetCurrent
 0001:0001D6BC       SQLiteTable3.{System.Generics.Collections}TList<System.Integer>.TEnumerator.DoMoveNext
 0001:0001D6D8       SQLiteTable3.{System.Generics.Collections}TList<System.Integer>.TEnumerator.Create
 0001:0001D730       SQLiteTable3.{System.Generics.Collections}TList<System.Integer>.TEnumerator.MoveNext
 0001:0001D770       SQLiteTable3.{System.Generics.Defaults}TComparer<SQLiteTable3.TSQliteParam>.Default
 0001:0001D79C       SQLiteTable3.{System.Generics.Defaults}TComparer<SQLiteTable3.TSQliteParam>.Construct
 0001:0001D7D0       SQLiteTable3.TArray.Sort<SQLiteTable3.TSQliteParam>
 0001:0001D854       SQLiteTable3.TArray.BinarySearch<SQLiteTable3.TSQliteParam>
 0001:0001D93C       SQLiteTable3.{System.Generics.Defaults}TComparer<SQLiteTable3.TSQLiteField>.Default
 0001:0001D968       SQLiteTable3.{System.Generics.Defaults}TComparer<SQLiteTable3.TSQLiteField>.Construct
 0001:0001D99C       SQLiteTable3.TArray.Sort<SQLiteTable3.TSQLiteField>
 0001:0001DA20       SQLiteTable3.TArray.BinarySearch<SQLiteTable3.TSQLiteField>
 0001:0001DB08       SQLiteTable3.{System.Generics.Defaults}TDelegatedComparer<SQLiteTable3.PSQLiteFuncs>.Create
 0001:0001DB50       SQLiteTable3.{System.Generics.Defaults}TDelegatedComparer<SQLiteTable3.PSQLiteFuncs>.Compare
 0001:0001DB7C       SQLiteTable3.TArray.QuickSort<SQLiteTable3.PSQLiteFuncs>
 0001:0001DC84       SQLiteTable3.{System.Generics.Defaults}TComparer<SQLiteTable3.TPair<System.string,System.Integer>>.Default
 0001:0001DCB0       SQLiteTable3.{System.Generics.Defaults}TComparer<SQLiteTable3.TPair<System.string,System.Integer>>.Construct
 0001:0001DCE4       SQLiteTable3.TArray.Sort<SQLiteTable3.TPair<System.string,System.Integer>>
 0001:0001DD68       SQLiteTable3.TArray.BinarySearch<SQLiteTable3.TPair<System.string,System.Integer>>
 0001:0001DE50       SQLiteTable3.{System.Generics.Defaults}TComparer<System.string>.Default
 0001:0001DE7C       SQLiteTable3.{System.Generics.Defaults}TComparer<System.string>.Construct
 0001:0001DEB0       SQLiteTable3.TArray.Sort<System.string>
 0001:0001DF34       SQLiteTable3.TArray.BinarySearch<System.string>
 0001:0001E01C       SQLiteTable3.{System.Generics.Defaults}TComparer<System.Integer>.Default
 0001:0001E048       SQLiteTable3.{System.Generics.Defaults}TComparer<System.Integer>.Construct
 0001:0001E07C       SQLiteTable3.TArray.Sort<System.Integer>
 0001:0001E100       SQLiteTable3.TArray.BinarySearch<System.Integer>
 0001:0001E1E8       SQLiteTable3.{System.Generics.Defaults}TDelegatedComparer<SQLiteTable3.TSQliteParam>.Create
 0001:0001E230       SQLiteTable3.{System.Generics.Defaults}TDelegatedComparer<SQLiteTable3.TSQliteParam>.Compare
 0001:0001E25C       SQLiteTable3.TArray.QuickSort<SQLiteTable3.TSQliteParam>
 0001:0001E364       SQLiteTable3.{System.Generics.Defaults}TDelegatedComparer<SQLiteTable3.TSQLiteField>.Create
 0001:0001E3AC       SQLiteTable3.{System.Generics.Defaults}TDelegatedComparer<SQLiteTable3.TSQLiteField>.Compare
 0001:0001E3D8       SQLiteTable3.TArray.QuickSort<SQLiteTable3.TSQLiteField>
 0001:0001E4E0       SQLiteTable3.{System.Generics.Defaults}TDelegatedComparer<SQLiteTable3.TPair<System.string,System.Integer>>.Create
 0001:0001E528       SQLiteTable3.{System.Generics.Defaults}TDelegatedComparer<SQLiteTable3.TPair<System.string,System.Integer>>.Compare
 0001:0001E554       SQLiteTable3.TArray.QuickSort<SQLiteTable3.TPair<System.string,System.Integer>>
 0001:0001E6E0       SQLiteTable3.{System.Generics.Defaults}TDelegatedComparer<System.string>.Create
 0001:0001E728       SQLiteTable3.{System.Generics.Defaults}TDelegatedComparer<System.string>.Compare
 0001:0001E754       SQLiteTable3.TArray.QuickSort<System.string>
 0001:0001E8AC       SQLiteTable3.{System.Generics.Defaults}TDelegatedComparer<System.Integer>.Create
 0001:0001E8F4       SQLiteTable3.{System.Generics.Defaults}TDelegatedComparer<System.Integer>.Compare
 0001:0001E920       SQLiteTable3.TArray.QuickSort<System.Integer>
 0001:0001EAE8       SQLiteTable3..{System.Generics.Defaults}TComparer<SQLiteTable3.PSQLiteFuncs>
 0001:0001EC48       SQLiteTable3.{System.Generics.Defaults}TComparer<SQLiteTable3.PSQLiteFuncs>.Compare
 0001:0001EF64       SQLiteTable3..{System.Generics.Collections}TList<SQLiteTable3.TPair<System.string,System.Integer>>.TEnumerator
 0001:0001F148       SQLiteTable3..{System.Generics.Collections}TList<SQLiteTable3.TPair<System.string,System.Integer>>
 0001:0001FCA8       SQLiteTable3..{System.Generics.Collections}TList<System.string>.TEnumerator
 0001:0001FE48       SQLiteTable3..{System.Generics.Collections}TList<System.string>
 0001:00020964       SQLiteTable3..{System.Generics.Collections}TList<System.Integer>.TEnumerator
 0001:00020B04       SQLiteTable3..{System.Generics.Collections}TList<System.Integer>
 0001:000215C0       SQLiteTable3..{System.Generics.Defaults}TComparer<SQLiteTable3.TSQliteParam>
 0001:00021720       SQLiteTable3.{System.Generics.Defaults}TComparer<SQLiteTable3.TSQliteParam>.Compare
 0001:000218AC       SQLiteTable3..{System.Generics.Defaults}TComparer<SQLiteTable3.TSQLiteField>
 0001:00021A0C       SQLiteTable3.{System.Generics.Defaults}TComparer<SQLiteTable3.TSQLiteField>.Compare
 0001:00021AD8       SQLiteTable3..{System.Generics.Defaults}TDelegatedComparer<SQLiteTable3.PSQLiteFuncs>
 0001:00021D5C       SQLiteTable3..{System.Generics.Defaults}TComparer<SQLiteTable3.TPair<System.string,System.Integer>>
 0001:00021ED0       SQLiteTable3.{System.Generics.Defaults}TComparer<SQLiteTable3.TPair<System.string,System.Integer>>.Compare
 0001:0002207C       SQLiteTable3..{System.Generics.Defaults}TComparer<System.string>
 0001:000221D0       SQLiteTable3.{System.Generics.Defaults}TComparer<System.string>.Compare
 0001:0002233C       SQLiteTable3..{System.Generics.Defaults}TComparer<System.Integer>
 0001:00022490       SQLiteTable3.{System.Generics.Defaults}TComparer<System.Integer>.Compare
 0001:00022544       SQLiteTable3..{System.Generics.Defaults}TDelegatedComparer<SQLiteTable3.TSQliteParam>
 0001:000226F0       SQLiteTable3..{System.Generics.Defaults}TDelegatedComparer<SQLiteTable3.TSQLiteField>
 0001:0002289C       SQLiteTable3..{System.Generics.Defaults}TDelegatedComparer<SQLiteTable3.TPair<System.string,System.Integer>>
 0001:00022A78       SQLiteTable3..{System.Generics.Defaults}TDelegatedComparer<System.string>
 0001:00022C0C       SQLiteTable3..{System.Generics.Defaults}TDelegatedComparer<System.Integer>
 0001:00022DA0       System.Win.ComObj.TComServerObject.Destroy@
 0001:00022DA8       System.Win.ComObj.Finalization
 0001:00022DB0       Datasnap.DSIntf.Finalization
 0001:00022DB8       Datasnap.Provider.Finalization
 0001:00022DC0       Datasnap.DBClient.TCustomClientDataSet.Create
 0001:00022DC8       Datasnap.DBClient.TCustomClientDataSet.Destroy
 0001:00022DD0       Datasnap.DBClient.TCustomClientDataSet.SetCommandText
 0001:00022DD8       Datasnap.DBClient.TCustomClientDataSet.SetOptionalParam
 0001:00022DE0       Datasnap.DBClient.TCustomClientDataSet.OpenCursor
 0001:00022DE8       Datasnap.DBClient.TCustomClientDataSet.DoAfterGetParams
 0001:00022DF0       Datasnap.DBClient.TCustomClientDataSet.DoBeforeGetParams
 0001:00022DF8       Datasnap.DBClient.TCustomClientDataSet.CloseCursor
 0001:00022E00       Datasnap.DBClient.TCustomClientDataSet.DefChanged
 0001:00022E08       Datasnap.DBClient.TCustomClientDataSet.InternalInitFieldDefs
 0001:00022E10       Datasnap.DBClient.TCustomClientDataSet.InternalOpen
 0001:00022E18       Datasnap.DBClient.TCustomClientDataSet.InternalClose
 0001:00022E20       Datasnap.DBClient.TCustomClientDataSet.InternalRefresh
 0001:00022E28       Datasnap.DBClient.TCustomClientDataSet.IsCursorOpen
 0001:00022E30       Datasnap.DBClient.TCustomClientDataSet.InternalHandleException
 0001:00022E38       Datasnap.DBClient.TCustomClientDataSet.FetchMoreData
 0001:00022E40       Datasnap.DBClient.TCustomClientDataSet.CheckProviderEOF
 0001:00022E48       Datasnap.DBClient.TCustomClientDataSet.AddDataPacket
 0001:00022E50       Datasnap.DBClient.TCustomClientDataSet.GetNextPacket
 0001:00022E58       Datasnap.DBClient.TCustomClientDataSet.GetAppServer
 0001:00022E60       Datasnap.DBClient.TCustomClientDataSet.SetAppServer
 0001:00022E68       Datasnap.DBClient.TCustomClientDataSet.SetProviderEOF
 0001:00022E70       Datasnap.DBClient.TCustomClientDataSet.GetRemoteServer
 0001:00022E78       Datasnap.DBClient.TCustomClientDataSet.SetRemoteServer
 0001:00022E80       Datasnap.DBClient.TCustomClientDataSet.Notification
 0001:00022E88       Datasnap.DBClient.TCustomClientDataSet.DataEvent
 0001:00022E90       Datasnap.DBClient.TCustomClientDataSet.Execute
 0001:00022E98       Datasnap.DBClient.TCustomClientDataSet.ExecuteCommand
 0001:00022EA0       Datasnap.DBClient.TCustomClientDataSet.DataRequest
 0001:00022EA8       Datasnap.DBClient.TCustomClientDataSet.ApplyUpdates
 0001:00022EB0       Datasnap.DBClient.TCustomClientDataSet.MergeChangeLog
 0001:00022EB8       Datasnap.DBClient.TCustomClientDataSet.CloneCursor
 0001:00022EC0       Datasnap.DBClient.TCustomClientDataSet.CreateDataSet
 0001:00022EC8       Datasnap.DBClient.TCustomClientDataSet.EmptyDataSet
 0001:00022ED0       Datasnap.DBClient.TCustomClientDataSet.SetLogChanges
 0001:00022ED8       Datasnap.DBClient.TCustomClientDataSet.GetLogChanges
 0001:00022EE0       Datasnap.DBClient.TCustomClientDataSet.GetCanModify
 0001:00022EE8       Datasnap.DBClient.TCustomClientDataSet.AllocRecordBuffer
 0001:00022EF0       Datasnap.DBClient.TCustomClientDataSet.FreeRecordBuffer
 0001:00022EF8       Datasnap.DBClient.TCustomClientDataSet.InternalInitRecord
 0001:00022F00       Datasnap.DBClient.TCustomClientDataSet.ClearCalcFields
 0001:00022F08       Datasnap.DBClient.TCustomClientDataSet.InitRecord
 0001:00022F10       Datasnap.DBClient.TCustomClientDataSet.GetRecord
 0001:00022F18       Datasnap.DBClient.TCustomClientDataSet.GetCurrentRecord
 0001:00022F20       Datasnap.DBClient.TCustomClientDataSet.GetRecordCount
 0001:00022F28       Datasnap.DBClient.TCustomClientDataSet.GetRecNo
 0001:00022F30       Datasnap.DBClient.TCustomClientDataSet.SetRecNo
 0001:00022F38       Datasnap.DBClient.TCustomClientDataSet.GetRecordSize
 0001:00022F40       Datasnap.DBClient.TCustomClientDataSet.GetChangeCount
 0001:00022F48       Datasnap.DBClient.TCustomClientDataSet.GetCommandStates
 0001:00022F50       Datasnap.DBClient.TCustomClientDataSet.UpdateStatus
 0001:00022F58       Datasnap.DBClient.TCustomClientDataSet.GetFieldData
 0001:00022F60       Datasnap.DBClient.TCustomClientDataSet.GetFieldData
 0001:00022F68       Datasnap.DBClient.TCustomClientDataSet.GetStateFieldValue
 0001:00022F70       Datasnap.DBClient.TCustomClientDataSet.SetFieldData
 0001:00022F78       Datasnap.DBClient.TCustomClientDataSet.CreateBlobStream
 0001:00022F80       Datasnap.DBClient.TCustomClientDataSet.RefreshInternalCalcFields
 0001:00022F88       Datasnap.DBClient.TCustomClientDataSet.DataConvert
 0001:00022F90       Datasnap.DBClient.TCustomClientDataSet.InternalFirst
 0001:00022F98       Datasnap.DBClient.TCustomClientDataSet.InternalLast
 0001:00022FA0       Datasnap.DBClient.TCustomClientDataSet.InternalPost
 0001:00022FA8       Datasnap.DBClient.TCustomClientDataSet.InternalCancel
 0001:00022FB0       Datasnap.DBClient.TCustomClientDataSet.InternalDelete
 0001:00022FB8       Datasnap.DBClient.TCustomClientDataSet.InternalEdit
 0001:00022FC0       Datasnap.DBClient.TCustomClientDataSet.DoBeforeInsert
 0001:00022FC8       Datasnap.DBClient.TCustomClientDataSet.InternalInsert
 0001:00022FD0       Datasnap.DBClient.TCustomClientDataSet.Post
 0001:00022FD8       Datasnap.DBClient.TCustomClientDataSet.Cancel
 0001:00022FE0       Datasnap.DBClient.TCustomClientDataSet.InternalAddRecord
 0001:00022FE8       Datasnap.DBClient.TCustomClientDataSet.InternalGotoBookmark
 0001:00022FF0       Datasnap.DBClient.TCustomClientDataSet.InternalSetToRecord
 0001:00022FF8       Datasnap.DBClient.TCustomClientDataSet.GetBookmarkFlag
 0001:00023000       Datasnap.DBClient.TCustomClientDataSet.SetBookmarkFlag
 0001:00023008       Datasnap.DBClient.TCustomClientDataSet.GetBookmarkData
 0001:00023010       Datasnap.DBClient.TCustomClientDataSet.SetBookmarkData
 0001:00023018       Datasnap.DBClient.TCustomClientDataSet.CompareBookmarks
 0001:00023020       Datasnap.DBClient.TCustomClientDataSet.BookmarkValid
 0001:00023028       Datasnap.DBClient.TCustomClientDataSet.CancelUpdates
 0001:00023030       Datasnap.DBClient.TCustomClientDataSet.UpdateIndexDefs
 0001:00023038       Datasnap.DBClient.TCustomClientDataSet.GetIsIndexField
 0001:00023040       Datasnap.DBClient.TCustomClientDataSet.FindKey
 0001:00023048       Datasnap.DBClient.TCustomClientDataSet.CheckDetailRecords
 0001:00023050       Datasnap.DBClient.TCustomClientDataSet.SetDataSetField
 0001:00023058       Datasnap.DBClient.TCustomClientDataSet.Loaded
 0001:00023060       Datasnap.DBClient.TCustomClientDataSet.GetDataSource
 0001:00023068       Datasnap.DBClient.TCustomClientDataSet.DoOnNewRecord
 0001:00023070       Datasnap.DBClient.TCustomClientDataSet.DefineProperties
 0001:00023078       Datasnap.DBClient.TCustomClientDataSet.SetFilterText
 0001:00023080       Datasnap.DBClient.TCustomClientDataSet.SetFilterOptions
 0001:00023088       Datasnap.DBClient.TCustomClientDataSet.SetOnFilterRecord
 0001:00023090       Datasnap.DBClient.TCustomClientDataSet.SetFiltered
 0001:00023098       Datasnap.DBClient.TCustomClientDataSet.SetStatusFilter
 0001:000230A0       Datasnap.DBClient.TCustomClientDataSet.FindRecord
 0001:000230A8       Datasnap.DBClient.TCustomClientDataSet.DestroyLookupCursor
 0001:000230B0       Datasnap.DBClient.TCustomClientDataSet.Lookup
 0001:000230B8       Datasnap.DBClient.TCustomClientDataSet.Locate
 0001:000230C0       Datasnap.DBClient.TCustomClientDataSet.SetAggregates
 0001:000230C8       Datasnap.DBClient.TCustomClientDataSet.GetAggregateValue
 0001:000230D0       Datasnap.DBClient.TCustomClientDataSet.ResetAggField
 0001:000230D8       Datasnap.DBClient.TCustomClientDataSet.DoAfterApplyUpdates
 0001:000230E0       Datasnap.DBClient.TCustomClientDataSet.DoBeforeApplyUpdates
 0001:000230E8       Datasnap.DBClient.TCustomClientDataSet.DoApplyUpdates
 0001:000230F0       Datasnap.DBClient.TCustomClientDataSet.DoBeforeGetRecords
 0001:000230F8       Datasnap.DBClient.TCustomClientDataSet.DoAfterGetRecords
 0001:00023100       Datasnap.DBClient.TCustomClientDataSet.DoGetRecords
 0001:00023108       Datasnap.DBClient.TCustomClientDataSet.DoAfterRowRequest
 0001:00023110       Datasnap.DBClient.TCustomClientDataSet.DoBeforeRowRequest
 0001:00023118       Datasnap.DBClient.TCustomClientDataSet.DoRowRequest
 0001:00023120       Datasnap.DBClient.TCustomClientDataSet.DoAfterExecute
 0001:00023128       Datasnap.DBClient.TCustomClientDataSet.DoBeforeExecute
 0001:00023130       Datasnap.DBClient.TCustomClientDataSet.DoExecute
 0001:00023138       Datasnap.DBClient.TCustomClientDataSet.PSGetIndexDefs
 0001:00023140       Datasnap.DBClient.TCustomClientDataSet.PSGetCommandText
 0001:00023148       Datasnap.DBClient.TCustomClientDataSet.PSGetCommandType
 0001:00023150       Datasnap.DBClient.TCustomClientDataSet.GetIsClone
 0001:00023158       Datasnap.DBClient.Finalization
 0001:00023160       SQLite3Dataset..TSQLiteUpdateSQL
 0001:000233C4       SQLite3Dataset..TSQLiteDataset
 0001:00023B98       SQLite3Dataset..{System.Generics.Collections}TEnumerator<SQLite3Dataset.T3<System.string,System.Boolean,Data.DB.TField>>
 0001:00023D24       SQLite3Dataset..{System.Generics.Collections}TEnumerable<SQLite3Dataset.T3<System.string,System.Boolean,Data.DB.TField>>
 0001:000241D0       SQLite3Dataset..{System.Generics.Collections}TList<SQLite3Dataset.T3<System.string,System.Boolean,Data.DB.TField>>.TEnumerator
 0001:000243D0       SQLite3Dataset..{System.Generics.Collections}TList<SQLite3Dataset.T3<System.string,System.Boolean,Data.DB.TField>>
 0001:00024E58       SQLite3Dataset.TSQLiteDataset.GetPair
 0001:0002510C       SQLite3Dataset.TSQLiteDataset.Notification
 0001:00025168       SQLite3Dataset.DoApplyUpdate
 0001:00025350       SQLite3Dataset.FillParams
 0001:000253AC       SQLite3Dataset.TSQLiteDataset.ApplyUpdates
 0001:0002576C       SQLite3Dataset.TSQLiteDataset.ApplyUpdates
 0001:0002578C       SQLite3Dataset.TSQLiteDataset.Create
 0001:0002582C       SQLite3Dataset.TSQLiteDataset.Destroy
 0001:0002588C       SQLite3Dataset.TSQLiteDataset.DoInitFields
 0001:00025A14       SQLite3Dataset.TSQLiteDataset.DoInternalOpen
 0001:00025B28       SQLite3Dataset.TSQLiteDataset.DoInternalRefreshRecord
 0001:00025D38       SQLite3Dataset.TSQLiteDataset.RefreshRecord
 0001:00025D88       SQLite3Dataset.TSQLiteDataset.SetActive
 0001:00025EC8       SQLite3Dataset.TSQLiteUpdateSQL.Create
 0001:00025F58       SQLite3Dataset.TSQLiteUpdateSQL.Destroy
 0001:00025FB8       SQLite3Dataset.Finalization
 0001:00025FF8       SQLite3Dataset.{SQLite3Dataset}T3<System.string,System.Boolean,Data.DB.TField>.Create
 0001:00026030       SQLite3Dataset.{System.Generics.Collections}TEnumerable<SQLite3Dataset.T3<System.string,System.Boolean,Data.DB.TField>>.ToArrayImpl
 0001:0002611C       SQLite3Dataset.{System.Generics.Collections}TEnumerable<SQLite3Dataset.T3<System.string,System.Boolean,Data.DB.TField>>.GetEnumerator
 0001:00026138       SQLite3Dataset.{System.Generics.Collections}TEnumerable<SQLite3Dataset.T3<System.string,System.Boolean,Data.DB.TField>>.ToArray
 0001:00026234       SQLite3Dataset.{System.Generics.Collections}TEnumerator<SQLite3Dataset.T3<System.string,System.Boolean,Data.DB.TField>>.MoveNext
 0001:00026250       SQLite3Dataset.{System.Generics.Collections}TList<SQLite3Dataset.T3<System.string,System.Boolean,Data.DB.TField>>.GetCapacity
 0001:00026270       SQLite3Dataset.{System.Generics.Collections}TList<SQLite3Dataset.T3<System.string,System.Boolean,Data.DB.TField>>.SetCapacity
 0001:000262B4       SQLite3Dataset.{System.Generics.Collections}TList<SQLite3Dataset.T3<System.string,System.Boolean,Data.DB.TField>>.SetCount
 0001:00026324       SQLite3Dataset.{System.Generics.Collections}TList<SQLite3Dataset.T3<System.string,System.Boolean,Data.DB.TField>>.GetItem
 0001:0002637C       SQLite3Dataset.{System.Generics.Collections}TList<SQLite3Dataset.T3<System.string,System.Boolean,Data.DB.TField>>.SetItem
 0001:0002644C       SQLite3Dataset.{System.Generics.Collections}TList<SQLite3Dataset.T3<System.string,System.Boolean,Data.DB.TField>>.Grow
 0001:000264A0       SQLite3Dataset.{System.Generics.Collections}TList<SQLite3Dataset.T3<System.string,System.Boolean,Data.DB.TField>>.GrowCheck
 0001:000264D8       SQLite3Dataset.{System.Generics.Collections}TList<SQLite3Dataset.T3<System.string,System.Boolean,Data.DB.TField>>.DoDelete
 0001:00026604       SQLite3Dataset.{System.Generics.Collections}TList<SQLite3Dataset.T3<System.string,System.Boolean,Data.DB.TField>>.DoGetEnumerator
 0001:00026620       SQLite3Dataset.{System.Generics.Collections}TList<SQLite3Dataset.T3<System.string,System.Boolean,Data.DB.TField>>.Notify
 0001:00026654       SQLite3Dataset.{System.Generics.Collections}TList<SQLite3Dataset.T3<System.string,System.Boolean,Data.DB.TField>>.Create
 0001:000266D8       SQLite3Dataset.{System.Generics.Collections}TList<SQLite3Dataset.T3<System.string,System.Boolean,Data.DB.TField>>.Create
 0001:00026780       SQLite3Dataset.{System.Generics.Collections}TList<SQLite3Dataset.T3<System.string,System.Boolean,Data.DB.TField>>.Create
 0001:00026820       SQLite3Dataset.{System.Generics.Collections}TList<SQLite3Dataset.T3<System.string,System.Boolean,Data.DB.TField>>.Destroy
 0001:0002685C       SQLite3Dataset.{System.Generics.Collections}TList<SQLite3Dataset.T3<System.string,System.Boolean,Data.DB.TField>>.Add
 0001:000268BC       SQLite3Dataset.{System.Generics.Collections}TList<SQLite3Dataset.T3<System.string,System.Boolean,Data.DB.TField>>.AddRange
 0001:000268E4       SQLite3Dataset.{System.Generics.Collections}TList<SQLite3Dataset.T3<System.string,System.Boolean,Data.DB.TField>>.AddRange
 0001:00026908       SQLite3Dataset.{System.Generics.Collections}TList<SQLite3Dataset.T3<System.string,System.Boolean,Data.DB.TField>>.AddRange
 0001:0002692C       SQLite3Dataset.{System.Generics.Collections}TList<SQLite3Dataset.T3<System.string,System.Boolean,Data.DB.TField>>.Insert
 0001:00026A04       SQLite3Dataset.{System.Generics.Collections}TList<SQLite3Dataset.T3<System.string,System.Boolean,Data.DB.TField>>.InsertRange
 0001:00026B38       SQLite3Dataset.{System.Generics.Collections}TList<SQLite3Dataset.T3<System.string,System.Boolean,Data.DB.TField>>.InsertRange
 0001:00026BD8       SQLite3Dataset.{System.Generics.Collections}TList<SQLite3Dataset.T3<System.string,System.Boolean,Data.DB.TField>>.InsertRange
 0001:00026C98       SQLite3Dataset.{System.Generics.Collections}TList<SQLite3Dataset.T3<System.string,System.Boolean,Data.DB.TField>>.Remove
 0001:00026CCC       SQLite3Dataset.{System.Generics.Collections}TList<SQLite3Dataset.T3<System.string,System.Boolean,Data.DB.TField>>.Delete
 0001:00026CEC       SQLite3Dataset.{System.Generics.Collections}TList<SQLite3Dataset.T3<System.string,System.Boolean,Data.DB.TField>>.DeleteRange
 0001:00026E84       SQLite3Dataset.{System.Generics.Collections}TList<SQLite3Dataset.T3<System.string,System.Boolean,Data.DB.TField>>.Extract
 0001:00026EF0       SQLite3Dataset.{System.Generics.Collections}TList<SQLite3Dataset.T3<System.string,System.Boolean,Data.DB.TField>>.Exchange
 0001:00026FA8       SQLite3Dataset.{System.Generics.Collections}TList<SQLite3Dataset.T3<System.string,System.Boolean,Data.DB.TField>>.Move
 0001:00027110       SQLite3Dataset.{System.Generics.Collections}TList<SQLite3Dataset.T3<System.string,System.Boolean,Data.DB.TField>>.First
 0001:00027130       SQLite3Dataset.{System.Generics.Collections}TList<SQLite3Dataset.T3<System.string,System.Boolean,Data.DB.TField>>.Last
 0001:00027154       SQLite3Dataset.{System.Generics.Collections}TList<SQLite3Dataset.T3<System.string,System.Boolean,Data.DB.TField>>.Clear
 0001:00027174       SQLite3Dataset.{System.Generics.Collections}TList<SQLite3Dataset.T3<System.string,System.Boolean,Data.DB.TField>>.Contains
 0001:00027198       SQLite3Dataset.{System.Generics.Collections}TList<SQLite3Dataset.T3<System.string,System.Boolean,Data.DB.TField>>.IndexOf
 0001:000271FC       SQLite3Dataset.{System.Generics.Collections}TList<SQLite3Dataset.T3<System.string,System.Boolean,Data.DB.TField>>.LastIndexOf
 0001:0002725C       SQLite3Dataset.{System.Generics.Collections}TList<SQLite3Dataset.T3<System.string,System.Boolean,Data.DB.TField>>.Reverse
 0001:00027330       SQLite3Dataset.{System.Generics.Collections}TList<SQLite3Dataset.T3<System.string,System.Boolean,Data.DB.TField>>.Sort
 0001:0002736C       SQLite3Dataset.{System.Generics.Collections}TList<SQLite3Dataset.T3<System.string,System.Boolean,Data.DB.TField>>.Sort
 0001:000273A8       SQLite3Dataset.{System.Generics.Collections}TList<SQLite3Dataset.T3<System.string,System.Boolean,Data.DB.TField>>.BinarySearch
 0001:000273F8       SQLite3Dataset.{System.Generics.Collections}TList<SQLite3Dataset.T3<System.string,System.Boolean,Data.DB.TField>>.BinarySearch
 0001:00027448       SQLite3Dataset.{System.Generics.Collections}TList<SQLite3Dataset.T3<System.string,System.Boolean,Data.DB.TField>>.TrimExcess
 0001:00027460       SQLite3Dataset.{System.Generics.Collections}TList<SQLite3Dataset.T3<System.string,System.Boolean,Data.DB.TField>>.ToArray
 0001:00027514       SQLite3Dataset.{System.Generics.Collections}TList<SQLite3Dataset.T3<System.string,System.Boolean,Data.DB.TField>>.GetEnumerator
 0001:00027538       SQLite3Dataset.{System.Generics.Collections}TList<SQLite3Dataset.T3<System.string,System.Boolean,Data.DB.TField>>.TEnumerator.GetCurrent
 0001:0002755C       SQLite3Dataset.{System.Generics.Collections}TList<SQLite3Dataset.T3<System.string,System.Boolean,Data.DB.TField>>.TEnumerator.DoGetCurrent
 0001:00027578       SQLite3Dataset.{System.Generics.Collections}TList<SQLite3Dataset.T3<System.string,System.Boolean,Data.DB.TField>>.TEnumerator.DoMoveNext
 0001:00027594       SQLite3Dataset.{System.Generics.Collections}TList<SQLite3Dataset.T3<System.string,System.Boolean,Data.DB.TField>>.TEnumerator.Create
 0001:000275EC       SQLite3Dataset.{System.Generics.Collections}TList<SQLite3Dataset.T3<System.string,System.Boolean,Data.DB.TField>>.TEnumerator.MoveNext
 0001:0002762C       SQLite3Dataset.{System.Generics.Defaults}TComparer<SQLite3Dataset.T3<System.string,System.Boolean,Data.DB.TField>>.Default
 0001:00027658       SQLite3Dataset.{System.Generics.Defaults}TComparer<SQLite3Dataset.T3<System.string,System.Boolean,Data.DB.TField>>.Construct
 0001:0002768C       SQLite3Dataset.TArray.Sort<SQLite3Dataset.T3<System.string,System.Boolean,Data.DB.TField>>
 0001:00027710       SQLite3Dataset.TArray.BinarySearch<SQLite3Dataset.T3<System.string,System.Boolean,Data.DB.TField>>
 0001:000277FC       SQLite3Dataset.{System.Generics.Defaults}TDelegatedComparer<SQLite3Dataset.T3<System.string,System.Boolean,Data.DB.TField>>.Create
 0001:00027844       SQLite3Dataset.{System.Generics.Defaults}TDelegatedComparer<SQLite3Dataset.T3<System.string,System.Boolean,Data.DB.TField>>.Compare
 0001:00027870       SQLite3Dataset.TArray.QuickSort<SQLite3Dataset.T3<System.string,System.Boolean,Data.DB.TField>>
 0001:00027AF8       SQLite3Dataset..{System.Generics.Defaults}TComparer<SQLite3Dataset.T3<System.string,System.Boolean,Data.DB.TField>>
 0001:00027C7C       SQLite3Dataset.{System.Generics.Defaults}TComparer<SQLite3Dataset.T3<System.string,System.Boolean,Data.DB.TField>>.Compare
 0001:00027D94       SQLite3Dataset..{System.Generics.Defaults}TDelegatedComparer<SQLite3Dataset.T3<System.string,System.Boolean,Data.DB.TField>>
 0001:00027F88       SQLite3Register.Register
 0001:00027FD8       SQLite3Register.Finalization
 0001:00028428       .pck_SQLite3.@GetPackageInfoTable
 0001:00028430       .pck_SQLite3.@PackageLoad
 0001:0002843C       .pck_SQLite3.@PackageUnload
 0002:00000000       System.System
 0002:00000008       SysInit.SysInit
 0002:00000010       Winapi.Windows.Winapi.Windows
 0002:00000028       System.Internal.ExcUtils.System.Internal.ExcUtils
 0002:00000030       System.SysUtils.TLanguages.Create@
 0002:00000038       System.SysUtils.TEncoding.Create@
 0002:00000040       System.SysUtils.Exception.Create@
 0002:00000048       System.SysUtils.TOSVersion.Create@
 0002:00000050       System.SysUtils.System.SysUtils
 0002:00000058       System.VarUtils.System.VarUtils
 0002:00000060       System.Variants.System.Variants
 0002:00000068       System.TypInfo.System.TypInfo
 0002:00000070       System.Classes.TObserverMapping.Create@
 0002:00000078       System.Classes.TBinaryWriter.Create@
 0002:00000080       System.Classes.TThread.Create@
 0002:00000088       System.Classes.TLoginCredentialService.Create@
 0002:00000090       System.Classes.System.Classes
 0002:00000098       SQLite3.SQLite3
 0002:000000D4       System.Math.System.Math
 0002:000000DC       System.TimeSpan.TTimeSpan.Create@
 0002:000000E4       System.SyncObjs.System.SyncObjs
 0002:000000EC       System.DateUtils.TTimeZone.Create@
 0002:000000F4       Data.SqlTimSt.Data.SqlTimSt
 0002:000000FC       Data.FmtBcd.Data.FmtBcd
 0002:00000104       Data.DB.Data.DB
 0002:0000010C       System.Rtti.System.Rtti
 0002:00000114       SQLiteTable3.SQLiteTable3
 0002:00000154       System.Win.ComObj.TComServerObject.Create@
 0002:0000015C       System.Win.ComObj.System.Win.ComObj
 0002:00000164       Datasnap.DSIntf.Datasnap.DSIntf
 0002:0000016C       Datasnap.Provider.Datasnap.Provider
 0002:00000174       Datasnap.DBClient.Datasnap.DBClient
 0002:0000017C       SQLite3Dataset.SQLite3Dataset
 0002:00000184       SQLite3Register.SQLite3Register
 0002:0000018C       .pck_SQLite3..pck_SQLite3
 0003:00000000       SysInit.TlsIndex
 0003:00000004       SysInit.PtrToNil
 0003:00000008       SysInit.Module
 0003:00000024       SysInit.TlsProc
 0003:00000034       SysInit...
 0003:00000088       Winapi.Windows.Win32MajorVersion
 0003:0000008C       Winapi.Windows.Win32MinorVersion
 0003:00000090       Winapi.Windows.Win32Platform
 0003:00000094       SQLite3.SQLite_Handle
 0003:00000098       SQLiteTable3.VarDataRecordType
 0003:0000009C       SQLiteTable3.DEF_COLTYPES_NAMES
 0003:000000C0       SQLiteTable3.DEF_COLTYPES
 0004:FFFD4000       SysInit.__ImageBase
 0004:00000000       SysInit.ModuleIsLib
 0004:00000001       SysInit.ModuleIsPackage
 0004:00000004       SysInit.HInstance
 0004:0000000C       SysInit.@_pfnDliNotifyHook2
 0004:00000010       SysInit.@_pfnDliFailureHook2
 0004:00000014       SysInit..1
 0004:00000018       SysInit.tlsBuffer
 0004:0000001C       Winapi.Windows..2
 0004:00000020       Winapi.Windows.HtmlHelpModule
 0004:00000024       SQLite3.sqlite3_open
 0004:00000028       SQLite3.sqlite3_open16
 0004:0000002C       SQLite3.SQLite3_Close
 0004:00000030       SQLite3.SQLite3_Exec
 0004:00000034       SQLite3.SQLite3_Version
 0004:00000038       SQLite3.SQLite3_ErrMsg
 0004:0000003C       SQLite3.SQLite3_ErrCode
 0004:00000040       SQLite3.SQlite3_Free
 0004:00000044       SQLite3.SQLite3_GetTable
 0004:00000048       SQLite3.SQLite3_FreeTable
 0004:0000004C       SQLite3.SQLite3_Complete
 0004:00000050       SQLite3.SQLite3_LastInsertRowID
 0004:00000054       SQLite3.SQLite3_Interrupt
 0004:00000058       SQLite3.SQLite3_BusyHandler
 0004:0000005C       SQLite3.SQLite3_BusyTimeout
 0004:00000060       SQLite3.SQLite3_Changes
 0004:00000064       SQLite3.SQLite3_TotalChanges
 0004:00000068       SQLite3.SQLite3_Prepare
 0004:0000006C       SQLite3.SQLite3_Prepare_v2
 0004:00000070       SQLite3.SQLite3_Prepare16
 0004:00000074       SQLite3.SQLite3_Prepare16_v2
 0004:00000078       SQLite3.SQLite3_ColumnCount
 0004:0000007C       SQLite3.SQLite3_ColumnName
 0004:00000080       SQLite3.SQLite3_ColumnName16
 0004:00000084       SQLite3.SQLite3_ColumnDeclType
 0004:00000088       SQLite3.SQLite3_ColumnDeclType16
 0004:0000008C       SQLite3.SQLite3_Step
 0004:00000090       SQLite3.SQLite3_DataCount
 0004:00000094       SQLite3.sqlite3_memory_used
 0004:00000098       SQLite3.sqlite3_key
 0004:0000009C       SQLite3.sqlite3_rekey
 0004:000000A0       SQLite3.sqlite3_set_authorizer
 0004:000000A4       SQLite3.sqlite3_update_hook
 0004:000000A8       SQLite3.sqlite3_table_column_metadata
 0004:000000AC       SQLite3.sqlite3_enable_load_extension
 0004:000000B0       SQLite3.sqlite3_load_extension
 0004:000000B4       SQLite3.SQLite3_ColumnBlob
 0004:000000B8       SQLite3.SQLite3_ColumnBytes
 0004:000000BC       SQLite3.SQLite3_ColumnBytes16
 0004:000000C0       SQLite3.SQLite3_ColumnDouble
 0004:000000C4       SQLite3.SQLite3_ColumnInt
 0004:000000C8       SQLite3.SQLite3_ColumnText
 0004:000000CC       SQLite3.SQLite3_ColumnText16
 0004:000000D0       SQLite3.SQLite3_ColumnType
 0004:000000D4       SQLite3.SQLite3_ColumnInt64
 0004:000000D8       SQLite3.SQLite3_Finalize
 0004:000000DC       SQLite3.SQLite3_Reset
 0004:000000E0       SQLite3.SQLite3_Backup_Init
 0004:000000E4       SQLite3.SQLite3_Backup_Step
 0004:000000E8       SQLite3.SQLite3_Backup_Finish
 0004:000000EC       SQLite3.SQLite3_Backup_Remaining
 0004:000000F0       SQLite3.SQLite3_Backup_Pagecount
 0004:000000F4       SQLite3.sqlite3_bind_blob
 0004:000000F8       SQLite3.sqlite3_bind_text
 0004:000000FC       SQLite3.sqlite3_bind_text16
 0004:00000100       SQLite3.sqlite3_bind_double
 0004:00000104       SQLite3.sqlite3_bind_int
 0004:00000108       SQLite3.sqlite3_bind_int64
 0004:0000010C       SQLite3.sqlite3_bind_null
 0004:00000110       SQLite3.sqlite3_clear_bindings
 0004:00000114       SQLite3.sqlite3_bind_parameter_index
 0004:00000118       SQLite3.sqlite3_bind_parameter_name
 0004:0000011C       SQLite3.sqlite3_bind_parameter_count
 0004:00000120       SQLite3.sqlite3_create_function
 0004:00000124       SQLite3.sqlite3_result_blob
 0004:00000128       SQLite3.sqlite3_result_double
 0004:0000012C       SQLite3.sqlite3_result_error
 0004:00000130       SQLite3.sqlite3_result_error16
 0004:00000134       SQLite3.sqlite3_result_int
 0004:00000138       SQLite3.sqlite3_result_int64
 0004:0000013C       SQLite3.sqlite3_result_null
 0004:00000140       SQLite3.sqlite3_result_text
 0004:00000144       SQLite3.sqlite3_result_text16
 0004:00000148       SQLite3.sqlite3_result_text16be
 0004:0000014C       SQLite3.sqlite3_result_text16le
 0004:00000150       SQLite3.sqlite3_result_value
 0004:00000154       SQLite3.sqlite3_user_data
 0004:00000158       SQLite3.sqlite3_aggregate_context
 0004:0000015C       SQLite3.sqlite3_value_blob
 0004:00000160       SQLite3.sqlite3_value_bytes
 0004:00000164       SQLite3.sqlite3_value_bytes16
 0004:00000168       SQLite3.sqlite3_value_double
 0004:0000016C       SQLite3.sqlite3_value_int
 0004:00000170       SQLite3.sqlite3_value_int64
 0004:00000174       SQLite3.sqlite3_value_text
 0004:00000178       SQLite3.sqlite3_value_text16
 0004:0000017C       SQLite3.sqlite3_value_text16be
 0004:00000180       SQLite3.sqlite3_value_text16le
 0004:00000184       SQLite3.sqlite3_value_type
 0004:00000188       SQLite3.sqlite3_enable_shared_cache
 0004:0000018C       SQLite3.SQLite3_create_collation
 0004:00000190       SQLite3.SQLite3_create_collation16
 0004:00000194       SQLite3..1
 0004:00000198       SQLiteTable3.TSQLiteDatabase.FColumnTypes
 0004:0000019C       SQLiteTable3..01
 0004:000001A0       SQLite3Dataset..3
 0004:000001A4       SQLite3Register..1
 0005:00000000       SysInit.TlsLast


Line numbers for SysInit(SysInit.pas) segment .text

   313 0001:00000288   314 0001:0000028B   315 0001:0000028E   316 0001:00000291
   317 0001:00000294   332 0001:00000298   359 0001:000002A0   362 0001:000002A8
   365 0001:000002B0   368 0001:000002B8   371 0001:000002C0   374 0001:000002C8
   389 0001:000002D0   404 0001:000002D8   406 0001:000002E0   407 0001:000002E8
   485 0001:000002F0   486 0001:000002F8   597 0001:000002FC   598 0001:00000301
   605 0001:00000304   610 0001:00000305   611 0001:0000030C   615 0001:00000310
   616 0001:00000323   617 0001:0000032A   618 0001:0000032E   620 0001:0000033A
   621 0001:00000346   626 0001:00000348   628 0001:00000351   629 0001:0000035B
   630 0001:00000360   631 0001:00000370   637 0001:00000374   639 0001:0000037D
   640 0001:00000386   641 0001:00000391   642 0001:00000395   643 0001:0000039B
   646 0001:000003A8   650 0001:000003AC   652 0001:000003B5   653 0001:000003BA
   654 0001:000003C3   655 0001:000003CE   767 0001:000003D0   768 0001:000003DA
   779 0001:000003DC   780 0001:000003E6   781 0001:000003F7   782 0001:000003FD
   857 0001:00000400   858 0001:0000040B   859 0001:00000412   860 0001:00000419
   861 0001:0000041E   862 0001:00000426   863 0001:0000042E   864 0001:00000433
   865 0001:0000043C   866 0001:00000445   867 0001:0000044A   868 0001:00000451
   869 0001:00000455   870 0001:0000045A   871 0001:0000045D   903 0001:00000464
   904 0001:0000046E   908 0001:00000470   909 0001:0000047A

Line numbers for SysInit(C:\Builds\TP\runtime\rtl\sys\delayhlp.cpp) segment .text

   223 0001:0000047C   231 0001:00000482   223 0001:00000487   231 0001:0000048A
   223 0001:0000048D   231 0001:00000490   242 0001:000004EF   231 0001:000004F2
   242 0001:000004F5   253 0001:00000512   254 0001:00000518   256 0001:00000527
   262 0001:00000539   265 0001:00000540   271 0001:00000543   265 0001:0000054B
   271 0001:0000054D   272 0001:00000558   274 0001:0000055B   276 0001:00000563
   278 0001:00000570   279 0001:00000574   280 0001:00000583   282 0001:00000585
   288 0001:00000590   290 0001:00000592   291 0001:0000059B   293 0001:000005A9
   294 0001:000005AD   300 0001:000005B2   301 0001:000005BA   302 0001:000005C3
   304 0001:000005D1   305 0001:000005D5   307 0001:000005E0   308 0001:000005E4
   309 0001:000005EC   314 0001:000005F5   317 0001:00000603   318 0001:00000607
   320 0001:00000615   331 0001:00000627   339 0001:0000062F   340 0001:00000639
   342 0001:0000063D   345 0001:00000643   347 0001:0000066E   349 0001:00000670
   356 0001:00000676   357 0001:00000679   358 0001:00000682   360 0001:00000690
   361 0001:00000694   364 0001:000006A0   366 0001:000006A5   373 0001:000006C4
   374 0001:000006CD   375 0001:000006D1   380 0001:000006D3   383 0001:000006DF
   384 0001:000006E3   385 0001:000006EB   389 0001:000006F4   391 0001:00000702
   392 0001:00000706   394 0001:00000714   405 0001:00000726   410 0001:00000729
   413 0001:0000072E   414 0001:00000737   415 0001:0000073C   416 0001:0000073F
   417 0001:00000742   419 0001:0000074E   420 0001:00000750   424 0001:0000075C
   426 0001:00000762   424 0001:00000764   426 0001:0000076A   429 0001:0000076D
   431 0001:0000077F   432 0001:0000078D   433 0001:0000079C   439 0001:000007A6
   440 0001:000007A8   439 0001:000007AA   440 0001:000007AD   443 0001:000007D1
   444 0001:000007DE   445 0001:000007E1   446 0001:000007EE   448 0001:000007F6
   452 0001:00000827   453 0001:00000830   455 0001:00000837   457 0001:0000084A
   460 0001:00000851   461 0001:00000855   464 0001:00000860   465 0001:00000863
   469 0001:0000086C   471 0001:00000871   469 0001:00000876   471 0001:00000877
   469 0001:0000087D   470 0001:0000087E   475 0001:00000885   478 0001:00000892
   490 0001:000008A3   491 0001:000008AC   492 0001:000008B5   495 0001:000008D5
   500 0001:000008D7   484 0001:000008DA   503 0001:000008E1   508 0001:000008E7
   509 0001:000008F3   510 0001:000008FA   512 0001:00000901   513 0001:00000905
   512 0001:0000090C   518 0001:00000913   521 0001:00000918   522 0001:0000091B
   536 0001:00000924   537 0001:0000092B    96 0001:0000092C    97 0001:0000092F
    98 0001:00000937    96 0001:0000093C    97 0001:0000093F    98 0001:00000947
    96 0001:0000094C    97 0001:0000094F    98 0001:00000957    96 0001:0000095C
    97 0001:0000095F    98 0001:00000967    96 0001:0000096C    97 0001:0000096F
    98 0001:00000977    34 0001:0000097C    35 0001:00000982    37 0001:00000984
    41 0001:0000098B    42 0001:0000098E    45 0001:00000990    46 0001:0000099D
    47 0001:000009A1    51 0001:000009A8    52 0001:000009A9    50 0001:000009AA
    55 0001:000009B3    56 0001:000009BB   110 0001:000009C0   111 0001:000009C3
   112 0001:000009C5   114 0001:000009CA   115 0001:000009CD   113 0001:000009CE
   117 0001:000009D3   118 0001:000009D5    59 0001:000009D8    61 0001:000009E6
    67 0001:000009EA    68 0001:000009EE    69 0001:000009EF    66 0001:000009F0
    72 0001:000009F9    73 0001:000009FB   144 0001:00000A00   145 0001:00000A06
   148 0001:00000A0D   147 0001:00000A0F   150 0001:00000A19   151 0001:00000A1D
   153 0001:00000A21    96 0001:00000A24    97 0001:00000A27    98 0001:00000A2F

Line numbers for SysInit(SysInit.pas) segment .text

  1333 0001:00000A44  1335 0001:00000A51

Line numbers for SysInit(SysInit.pas) segment .itext

  1331 0002:00000008  1332 0002:0000000F

Line numbers for Winapi.Windows(Winapi.Windows.pas) segment .text

 33974 0001:00000A54 34195 0001:00000A5C 34362 0001:00000A64 34364 0001:00000A6C
 34365 0001:00000A87 34366 0001:00000A8E 34368 0001:00000A99 34369 0001:00000AB9
 34452 0001:00000AE0 34540 0001:00000AE8 37208 0001:00000AF0 37209 0001:00000AF6
 37210 0001:00000AFD 37213 0001:00000B07 37214 0001:00000B10 37215 0001:00000B19
 37217 0001:00000B22 37374 0001:00000B2C 37375 0001:00000B48

Line numbers for Winapi.Windows(Winapi.Windows.pas) segment .itext

 37370 0002:00000010 37371 0002:00000019 37372 0002:0000001E 37373 0002:00000025

Line numbers for Winapi.Messages(Winapi.Messages.pas) segment .text

  2161 0001:00000000

Line numbers for Winapi.PsAPI(Winapi.PsAPI.pas) segment .text

   437 0001:00000000

Line numbers for SQLite3(SQLite3.pas) segment .text

   377 0001:00001204   378 0001:00001223   379 0001:0000124A   380 0001:00001259
   381 0001:00001268   382 0001:00001277   383 0001:00001286   385 0001:00001295
   387 0001:000012BA   390 0001:000013B8   391 0001:000013D7   392 0001:000014CE
   393 0001:000014E0   394 0001:000014F2   395 0001:00001504   396 0001:00001516
   397 0001:00001528   398 0001:0000153A   399 0001:0000154C   400 0001:0000155E
   401 0001:00001570   402 0001:00001582   403 0001:00001594   404 0001:000015A6
   405 0001:000015B8   406 0001:000015CA   407 0001:000015DC   408 0001:000015EE
   409 0001:00001600   410 0001:00001612   411 0001:00001624   412 0001:00001636
   413 0001:00001648   414 0001:0000165A   415 0001:00001669   416 0001:00001678
   417 0001:00001687   418 0001:00001696   419 0001:000016A5   420 0001:000016B4
   422 0001:000016C3   424 0001:000016E8   427 0001:00002024   428 0001:00002040
   429 0001:00002057   431 0001:0000205D   433 0001:0000208B   436 0001:00002110
   437 0001:00002119   438 0001:00002130   449 0001:00002138   450 0001:00002141
   451 0001:0000214C   453 0001:00002156   454 0001:00002169   456 0001:00002176
   457 0001:00002185   458 0001:00002194   459 0001:000021A3   460 0001:000021B2
   461 0001:000021C1   462 0001:000021D0   463 0001:000021DF   464 0001:000021EE
   465 0001:000021FD   466 0001:0000220C   467 0001:0000221B   468 0001:0000222A
   469 0001:00002239   470 0001:00002248   471 0001:00002257   472 0001:00002266
   473 0001:00002275   474 0001:00002284   475 0001:00002293   476 0001:000022A2
   478 0001:000022B1   479 0001:000022C0   480 0001:000022CF   481 0001:000022DE
   482 0001:000022ED   483 0001:000022FC   484 0001:0000230B   485 0001:0000231A
   486 0001:00002329   487 0001:00002338   488 0001:00002347   491 0001:00002356
   492 0001:00002365   493 0001:00002374   494 0001:00002383   495 0001:00002392
   496 0001:000023A1   497 0001:000023B0   498 0001:000023BF   499 0001:000023CE
   500 0001:000023DD   501 0001:000023EC   502 0001:000023FB   503 0001:0000240A
   504 0001:00002419   505 0001:00002428   506 0001:00002437   507 0001:00002446
   508 0001:00002455   509 0001:00002464   511 0001:00002473   512 0001:00002482
   513 0001:00002491   514 0001:000024A0   515 0001:000024AF   518 0001:000024BE
   519 0001:000024CD   520 0001:000024DC   522 0001:000024EB   523 0001:000024FA
   524 0001:00002509   525 0001:00002518   526 0001:00002527   527 0001:00002536
   528 0001:00002545   529 0001:00002554   530 0001:00002563   531 0001:00002572
   532 0001:00002581   533 0001:00002590   534 0001:0000259F   535 0001:000025AE
   536 0001:000025BD   538 0001:000025CC   539 0001:000025DB   540 0001:000025EA
   541 0001:000025F9   542 0001:00002608   543 0001:00002617   544 0001:00002626
   545 0001:00002635   546 0001:00002644   547 0001:00002653   548 0001:00002662
   549 0001:00002671   550 0001:00002680   551 0001:0000268F   552 0001:0000269E
   553 0001:000026AD   555 0001:000026BC   556 0001:000026CB   558 0001:000026DA
   561 0001:000026E5   564 0001:00003A50   565 0001:00003A53   567 0001:00003A5C
   569 0001:00003A67   570 0001:00003A6E   576 0001:00003A70   578 0001:00003A80

Line numbers for SQLite3(SQLite3.pas) segment .itext

   572 0002:00000098   573 0002:000000A4   575 0002:000000AE

Line numbers for SQLiteTable3(SQLiteTable3.pas) segment .text

   825 0001:0000D9A0   826 0001:0000D9A4   827 0001:0000D9B1   831 0001:0000D9B8
   832 0001:0000D9C4   833 0001:0000D9CC   834 0001:0000D9D7   835 0001:0000D9E0
   838 0001:0000D9E4   841 0001:0000D9F0   842 0001:0000D9FB   845 0001:0000DA00
   848 0001:0000DA0F   849 0001:0000DA21   854 0001:0000DA28   856 0001:0000DA54
   857 0001:0000DA65   858 0001:0000DA6D   859 0001:0000DA73   860 0001:0000DA89
   865 0001:0000DAB0   866 0001:0000DABF   874 0001:0000DAD3   890 0001:0000DCD8
   891 0001:0000DCDB   892 0001:0000DCE1   893 0001:0000DCE9   900 0001:0000DCEC
   901 0001:0000DD05   902 0001:0000DD16   904 0001:0000DD1C   905 0001:0000DD2A
   906 0001:0000DD30   908 0001:0000DD3B   914 0001:0000DD5C   915 0001:0000DD76
   916 0001:0000DD87   918 0001:0000DD8D   919 0001:0000DD9B   920 0001:0000DDA1
   922 0001:0000DDB3   928 0001:0000DDD8   929 0001:0000DDF2   930 0001:0000DE03
   932 0001:0000DE09   935 0001:0000DE17   936 0001:0000DE25   937 0001:0000DE2B
   941 0001:0000DE3F   942 0001:0000DE4D   943 0001:0000DE53   947 0001:0000DE65
   953 0001:0000DE88   954 0001:0000DEA3   955 0001:0000DEA8   957 0001:0000DEAE
   959 0001:0000DEBB   961 0001:0000DEC0   964 0001:0000DF15   967 0001:0000DF1B
   973 0001:0000DF48   974 0001:0000DF60   975 0001:0000DF66   977 0001:0000DF73
   980 0001:0000DFAC   988 0001:0000DFD4   989 0001:0000DFD8   991 0001:0000DFFA
   995 0001:0000E000   996 0001:0000E009   997 0001:0000E00D   998 0001:0000E04F
   999 0001:0000E055  1000 0001:0000E05B  1001 0001:0000E061  1002 0001:0000E067
  1003 0001:0000E06D  1005 0001:0000E071  1013 0001:0000E078  1014 0001:0000E0B0
  1015 0001:0000E0BD  1016 0001:0000E0CE  1017 0001:0000E0D6  1018 0001:0000E0E8
  1019 0001:0000E0F8  1020 0001:0000E11A  1021 0001:0000E12A  1022 0001:0000E133
  1023 0001:0000E149  1024 0001:0000E161  1025 0001:0000E168  1026 0001:0000E174
  1027 0001:0000E185  1028 0001:0000E196  1029 0001:0000E1A7  1030 0001:0000E1B1
  1031 0001:0000E1BD  1032 0001:0000E1C8  1035 0001:0000E254  1037 0001:0000E26F
  1038 0001:0000E281  1041 0001:0000E2A0  1042 0001:0000E2B1  1043 0001:0000E2BD
  1044 0001:0000E2C5  1045 0001:0000E2D0  1046 0001:0000E2DE  1047 0001:0000E2EC
  1050 0001:0000E300  1051 0001:0000E309  1052 0001:0000E320  1055 0001:0000E32C
  1056 0001:0000E335  1057 0001:0000E344  1061 0001:0000E350  1062 0001:0000E35F
  1063 0001:0000E37D  1066 0001:0000E388  1067 0001:0000E397  1068 0001:0000E3B3
  1072 0001:0000E3B8  1073 0001:0000E3C7  1074 0001:0000E3EA  1077 0001:0000E3F0
  1078 0001:0000E3FC  1080 0001:0000E412  1083 0001:0000E41C  1084 0001:0000E425
  1085 0001:0000E439  1094 0001:0000E440  1095 0001:0000E466  1096 0001:0000E46B
  1098 0001:0000E47F  1099 0001:0000E485  1101 0001:0000E499  1102 0001:0000E49F
  1105 0001:0000E4FE  1106 0001:0000E52E  1112 0001:0000E5C0  1113 0001:0000E5E2
  1114 0001:0000E5E7  1116 0001:0000E5FB  1117 0001:0000E601  1119 0001:0000E615
  1120 0001:0000E61B  1123 0001:0000E670  1124 0001:0000E684  1127 0001:0000E6E4
  1128 0001:0000E6F0  1130 0001:0000E6FB  1132 0001:0000E707  1133 0001:0000E70D
  1135 0001:0000E71C  1136 0001:0000E729  1139 0001:0000E732  1144 0001:0000E7B8
  1145 0001:0000E7DA  1147 0001:0000E7E8  1149 0001:0000E7F4  1150 0001:0000E7FA
  1152 0001:0000E809  1154 0001:0000E816  1155 0001:0000E83E  1158 0001:0000E84A
  1165 0001:0000E8E8  1166 0001:0000E8F4  1167 0001:0000E902  1169 0001:0000E92C
  1170 0001:0000E93C  1171 0001:0000E942  1172 0001:0000E952  1173 0001:0000E95D
  1175 0001:0000E968  1176 0001:0000E979  1178 0001:0000E97F  1179 0001:0000E98D
  1182 0001:0000E9AA  1183 0001:0000E9B0  1185 0001:0000E9C6  1191 0001:0000EA94
  1192 0001:0000EAC2  1194 0001:0000EAC8  1195 0001:0000EAD3  1197 0001:0000EAE4
  1199 0001:0000EAEA  1200 0001:0000EAF8  1202 0001:0000EB08  1204 0001:0000EB16
  1209 0001:0000EB9C  1210 0001:0000EBAB  1211 0001:0000EBC1  1214 0001:0000EBC8
  1215 0001:0000EBEB  1216 0001:0000EC10  1217 0001:0000EC17  1220 0001:0000EC3C
  1221 0001:0000EC4B  1222 0001:0000EC5F  1231 0001:0000EC64  1232 0001:0000EC73
  1233 0001:0000EC7E  1235 0001:0000EC86  1236 0001:0000ECB0  1238 0001:0000ECC2
  1240 0001:0000ECCB  1241 0001:0000ECD4  1242 0001:0000ECE4  1243 0001:0000ECEF
  1248 0001:0000ED74  1249 0001:0000EDA5  1250 0001:0000EDAB  1252 0001:0000EDC5
  1253 0001:0000EDD5  1258 0001:0000EE70  1259 0001:0000EEA1  1260 0001:0000EEA7
  1262 0001:0000EED3  1263 0001:0000EEE3  1269 0001:0000EF7C  1270 0001:0000EF83
  1271 0001:0000EF90  1274 0001:0000EFB0  1275 0001:0000EFDE  1277 0001:0000EFE4
  1278 0001:0000EFF2  1281 0001:0000EFF9  1282 0001:0000F009  1295 0001:0000F094
  1297 0001:0000F0A4  1298 0001:0000F0B5  1300 0001:0000F0C5  1301 0001:0000F0CA
  1303 0001:0000F0D8  1305 0001:0000F102  1307 0001:0000F112  1308 0001:0000F118
  1309 0001:0000F128  1312 0001:0000F133  1314 0001:0000F13D  1316 0001:0000F148
  1317 0001:0000F14E  1320 0001:0000F180  1321 0001:0000F18C  1323 0001:0000F19A
  1325 0001:0000F1BD  1326 0001:0000F1C3  1328 0001:0000F1D3  1330 0001:0000F1E4
  1332 0001:0000F1EA  1333 0001:0000F1F8  1338 0001:0000F215  1339 0001:0000F21B
  1341 0001:0000F229  1342 0001:0000F22F  1345 0001:0000F245  1350 0001:0000F3F0
  1351 0001:0000F3FC  1352 0001:0000F412  1359 0001:0000F41C  1360 0001:0000F43F
  1361 0001:0000F445  1363 0001:0000F44C  1365 0001:0000F457  1366 0001:0000F45F
  1368 0001:0000F467  1371 0001:0000F4A8  1374 0001:0000F4DF  1375 0001:0000F4E7
  1376 0001:0000F4EF  1377 0001:0000F4F7  1378 0001:0000F507  1379 0001:0000F517
  1383 0001:0000F5AC  1384 0001:0000F5B8  1385 0001:0000F5CB  1390 0001:0000F5D4
  1391 0001:0000F5E3  1392 0001:0000F5E8  1393 0001:0000F5FD  1394 0001:0000F60B
  1396 0001:0000F626  1398 0001:0000F636  1403 0001:0000F640  1404 0001:0000F663
  1405 0001:0000F66B  1406 0001:0000F681  1407 0001:0000F68F  1410 0001:0000F6B4
  1411 0001:0000F6D7  1412 0001:0000F6F6  1419 0001:0000F718  1420 0001:0000F721
  1422 0001:0000F72B  1424 0001:0000F730  1425 0001:0000F74E  1422 0001:0000F751
  1426 0001:0000F757  1431 0001:0000F75C  1432 0001:0000F77E  1434 0001:0000F7B2
  1436 0001:0000F7CD  1442 0001:0000F838  1443 0001:0000F858  1444 0001:0000F85D
  1445 0001:0000F867  1446 0001:0000F875  1448 0001:0000F87A  1449 0001:0000F88B
  1450 0001:0000F8BD  1457 0001:0000F8E2  1458 0001:0000F8EC  1460 0001:0000F8F5
  1461 0001:0000F909  1465 0001:0000F941  1469 0001:0000F96D  1472 0001:0000F973
  1473 0001:0000F97D  1475 0001:0000F993  1476 0001:0000F9BB  1478 0001:0000F9C1
  1482 0001:0000F9D0  1489 0001:0000F9DA  1490 0001:0000F9E7  1494 0001:0000FA06
  1495 0001:0000FA0C  1497 0001:0000FA22  1503 0001:0000FBBC  1504 0001:0000FBC8
  1505 0001:0000FBD6  1506 0001:0000FBE8  1507 0001:0000FBF6  1508 0001:0000FC04
  1509 0001:0000FC10  1511 0001:0000FC32  1512 0001:0000FC3A  1514 0001:0000FC4A
  1520 0001:0000FC54  1521 0001:0000FC63  1522 0001:0000FC6B  1523 0001:0000FC7D
  1524 0001:0000FC8B  1525 0001:0000FC99  1526 0001:0000FCA5  1528 0001:0000FCC4
  1529 0001:0000FCCC  1531 0001:0000FCDC  1538 0001:0000FCE0  1539 0001:0000FD03
  1540 0001:0000FD0B  1541 0001:0000FD21  1542 0001:0000FD2F  1543 0001:0000FD37
  1546 0001:0000FD47  1547 0001:0000FD5F  1544 0001:0000FD67  1550 0001:0000FD80
  1551 0001:0000FD88  1552 0001:0000FD90  1554 0001:0000FDA0  1557 0001:0000FDC4
  1558 0001:0000FDCB  1560 0001:0000FDD4  1561 0001:0000FDE1  1564 0001:0000FDEB
  1565 0001:0000FE01  1571 0001:0000FE74  1572 0001:0000FE80  1574 0001:0000FE8A
  1576 0001:0000FE90  1577 0001:0000FE95  1581 0001:0000FE9C  1582 0001:0000FEA7
  1585 0001:0000FEB2  1587 0001:0000FED1  1592 0001:0000FEE2  1594 0001:0000FEF8
  1597 0001:0000FFCC  1598 0001:0000FFD4  1599 0001:0000FFDD  1600 0001:0000FFE5
  1601 0001:0000FFED  1602 0001:0000FFF6  1603 0001:00010007  1605 0001:00010011
  1606 0001:0001001E  1607 0001:00010030  1610 0001:00010034  1611 0001:0001003B
  1612 0001:00010048  1613 0001:0001004F  1616 0001:00010070  1617 0001:00010077
  1618 0001:00010084  1619 0001:0001008B  1625 0001:000100B0  1627 0001:000100D2
  1629 0001:000100F7  1630 0001:00010105  1631 0001:00010113  1633 0001:0001012E
  1635 0001:0001013E  1638 0001:00010224  1639 0001:00010230  1640 0001:00010247
  1643 0001:0001024C  1644 0001:00010253  1645 0001:00010260  1648 0001:00010280
  1649 0001:0001028C  1650 0001:0001029D  1654 0001:000102A4  1655 0001:000102B3
  1656 0001:000102D7  1659 0001:000102DC  1661 0001:000102E3  1663 0001:00010305
  1666 0001:00010318  1667 0001:0001031F  1668 0001:0001032C  1674 0001:0001034C
  1675 0001:0001035B  1676 0001:0001035F  1677 0001:00010388  1678 0001:00010396
  1680 0001:000103AE  1682 0001:000103BE  1688 0001:00010404  1689 0001:0001040D
  1691 0001:00010416  1692 0001:00010428  1691 0001:0001043E  1694 0001:00010444
  1696 0001:0001044F  1701 0001:00010454  1702 0001:00010460  1703 0001:0001046F
  1704 0001:0001047D  1705 0001:00010487  1706 0001:00010496  1707 0001:000104A4
  1712 0001:000104AC  1713 0001:000104CF  1715 0001:000104DB  1717 0001:000104E6
  1719 0001:000104F6  1724 0001:00010518  1725 0001:00010524  1726 0001:00010533
  1727 0001:00010541  1728 0001:0001054B  1729 0001:0001055A  1730 0001:00010568
  1735 0001:00010570  1736 0001:0001057F  1737 0001:0001058E  1738 0001:0001059C
  1739 0001:000105A6  1740 0001:000105B4  1741 0001:000105C2  1746 0001:000105C8
  1747 0001:000105D4  1748 0001:000105E3  1749 0001:000105F1  1750 0001:000105FB
  1751 0001:00010609  1754 0001:00010610  1755 0001:0001061C  1757 0001:0001062A
  1758 0001:0001063C  1760 0001:00010644  1762 0001:0001064A  1764 0001:00010654
  1767 0001:0001065C  1770 0001:00010668  1773 0001:0001066C  1774 0001:00010673
  1775 0001:0001068A  1776 0001:000106A1  1779 0001:000106A4  1780 0001:000106B0
  1782 0001:000106BE  1784 0001:000106CA  1786 0001:000106E3  1789 0001:000106EF
  1792 0001:000106F4  1793 0001:00010700  1795 0001:00010713  1797 0001:00010723
  1800 0001:00010728  1801 0001:0001072F  1803 0001:00010744  1805 0001:00010750
  1807 0001:0001075D  1811 0001:0001077C  1814 0001:00010793  1817 0001:00010798
  1818 0001:0001079F  1820 0001:000107B4  1822 0001:000107C0  1824 0001:000107CD
  1828 0001:000107EC  1831 0001:00010803  1838 0001:00010808  1839 0001:00010827
  1840 0001:00010835  1842 0001:00010852  1843 0001:00010863  1844 0001:00010892
  1846 0001:0001089C  1848 0001:000108B5  1850 0001:000108D4  1852 0001:000108F3
  1855 0001:00010923  1858 0001:00010937  1840 0001:0001093A  1860 0001:00010950
  1862 0001:00010960  1866 0001:00010984  1867 0001:0001098D  1868 0001:00010992
  1869 0001:0001099E  1870 0001:000109B2  1873 0001:000109BC  1874 0001:000109C9
  1875 0001:000109D3  1876 0001:000109E2  1882 0001:000109E8  1883 0001:00010A0E
  1885 0001:00010A5D  1886 0001:00010A63  1888 0001:00010A7B  1890 0001:00010A89
  1892 0001:00010AAB  1895 0001:00010AC1  1898 0001:00010B34  1899 0001:00010B40
  1900 0001:00010B58  1924 0001:00010B78  1925 0001:00010BB0  1926 0001:00010BBA
  1927 0001:00010BC8  1928 0001:00010BD0  1931 0001:00010BD8  1932 0001:00010C02
  1933 0001:00010C12  1934 0001:00010C18  1935 0001:00010C28  1936 0001:00010C33
  1938 0001:00010C3E  1939 0001:00010C4F  1941 0001:00010C59  1944 0001:00010C6E
  1945 0001:00010C74  1948 0001:00010C81  1949 0001:00010C93  1950 0001:00010CA5
  1952 0001:00010CB9  1954 0001:00010CCF  1955 0001:00010D06  1952 0001:00010D09
  1957 0001:00010D0E  1959 0001:00010D28  1960 0001:00010D35  1961 0001:00010D4C
  1962 0001:00010D52  1966 0001:00010D6D  1968 0001:00010D83  1970 0001:00010D97
  1974 0001:00010DA1  1991 0001:00010DAA  1992 0001:00010DB8  1957 0001:00010DBB
  1993 0001:00010DC4  1997 0001:00010DD6  1999 0001:00010DF0  2000 0001:00010E07
  2001 0001:00010E0D  2003 0001:00010E1F  2005 0001:00010E32  2006 0001:00010E3F
  2007 0001:00010E5B  2010 0001:00010E6E  2012 0001:00010E81  2013 0001:00010E8E
  2014 0001:00010EA8  2017 0001:00010EBB  2019 0001:00010ED2  2020 0001:00010EE9
  2021 0001:00010EEF  2024 0001:00010EF6  2025 0001:00010F05  2026 0001:00010F11
  2028 0001:00010F28  2029 0001:00010F3F  2031 0001:00010F4D  2035 0001:00010F5D
  2036 0001:00010F70  2037 0001:00010F87  2038 0001:00010F9C  2040 0001:00010FAA
  1997 0001:00010FAD  2043 0001:00010FB8  2047 0001:00010FEC  2048 0001:00010FFA
  2051 0001:0001100A  1939 0001:0001101B  2053 0001:00011025  2055 0001:0001103A
  2056 0001:00011040  2058 0001:00011056  2066 0001:0001118C  2067 0001:0001119D
  2069 0001:000111AA  2072 0001:000111C7  2073 0001:000111DA  2075 0001:000111F2
  2077 0001:00011207  2079 0001:00011219  2080 0001:00011230  2083 0001:00011247
  2085 0001:0001125C  2069 0001:0001125F  2086 0001:00011268  2088 0001:00011273
  2089 0001:0001127C  2090 0001:00011287  2091 0001:00011290  2092 0001:000112A9
  2091 0001:000112C1  2093 0001:000112C6  2094 0001:000112D1  2095 0001:000112DF
  2100 0001:000112F4  2101 0001:00011304  2102 0001:00011315  2107 0001:0001131C
  2108 0001:00011338  2109 0001:00011344  2111 0001:0001135E  2112 0001:00011363
  2115 0001:00011388  2116 0001:00011391  2117 0001:0001139A  2122 0001:000113A4
  2123 0001:000113AD  2124 0001:000113BD  2127 0001:000113C4  2128 0001:000113CD
  2129 0001:000113DE  2132 0001:000113E8  2133 0001:000113F1  2134 0001:000113FC
  2139 0001:00011404  2140 0001:00011413  2141 0001:0001142B  2144 0001:00011430
  2145 0001:00011450  2147 0001:00011459  2148 0001:00011487  2151 0001:0001148C
  2153 0001:0001149B  2154 0001:000114C9  2157 0001:000114CB  2159 0001:000114E7
  2161 0001:000114ED  2163 0001:00011511  2171 0001:000115E0  2172 0001:000115EF
  2173 0001:000115F7  2174 0001:00011603  2178 0001:00011619  2180 0001:0001162C
  2183 0001:00011640  2184 0001:0001165E  2185 0001:00011664  2187 0001:00011673
  2190 0001:0001167D  2192 0001:00011694  2194 0001:000116B0  2196 0001:000116C0
  2198 0001:000116C8  2201 0001:00011708  2202 0001:00011714  2203 0001:00011720
  2204 0001:00011736  2205 0001:00011755  2207 0001:0001175C  2208 0001:0001176F
  2210 0001:0001178F  2211 0001:000117A5  2217 0001:00011818  2218 0001:00011827
  2219 0001:0001182F  2221 0001:0001183D  2222 0001:00011847  2224 0001:0001185C
  2225 0001:00011875  2226 0001:00011883  2227 0001:0001188E  2228 0001:0001189A
  2230 0001:000118BB  2236 0001:000118CB  2240 0001:000118D0  2241 0001:000118DC
  2242 0001:000118E8  2243 0001:000118FE  2244 0001:0001191D  2246 0001:00011930
  2247 0001:00011943  2249 0001:0001196B  2250 0001:0001197E  2252 0001:000119AD
  2253 0001:000119C3  2256 0001:00011A58  2257 0001:00011A64  2258 0001:00011A70
  2259 0001:00011A86  2260 0001:00011AA5  2262 0001:00011AB2  2263 0001:00011AC5
  2265 0001:00011AE8  2266 0001:00011AFB  2268 0001:00011B23  2269 0001:00011B39
  2272 0001:00011BC8  2273 0001:00011BD7  2274 0001:00011BE3  2275 0001:00011BF9
  2276 0001:00011C18  2278 0001:00011C22  2279 0001:00011C30  2284 0001:00011C70
  2285 0001:00011C7C  2286 0001:00011C88  2287 0001:00011C9E  2288 0001:00011CBC
  2289 0001:00011CC4  2294 0001:00011D08  2295 0001:00011D11  2296 0001:00011D15
  2298 0001:00011D21  2299 0001:00011D27  2301 0001:00011D2B  2304 0001:00011D34
  2305 0001:00011D3D  2306 0001:00011D41  2308 0001:00011D4D  2309 0001:00011D53
  2311 0001:00011D57  2314 0001:00011D60  2315 0001:00011D69  2316 0001:00011D6D
  2318 0001:00011D76  2319 0001:00011D7E  2321 0001:00011D82  2324 0001:00011D8C
  2325 0001:00011D95  2326 0001:00011D99  2328 0001:00011DA2  2329 0001:00011DAF
  2331 0001:00011DB3  2335 0001:00011DBC  2336 0001:00011DC8  2337 0001:00011DCC
  2339 0001:00011DE0  2340 0001:00011DE9  2342 0001:00011DED  2348 0001:00011DF4
  2349 0001:00011E0F  2351 0001:00011E1C  2353 0001:00011E27  2354 0001:00011E2F
  2357 0001:00011E50  2358 0001:00011E6B  2359 0001:00011E75  2360 0001:00011E7E
  2361 0001:00011E85  2362 0001:00011E8D  2363 0001:00011E95  2364 0001:00011EA6
  2365 0001:00011EAE  2366 0001:00011EC2  2369 0001:00011EE4  2370 0001:00011EFF
  2371 0001:00011F0C  2372 0001:00011F15  2373 0001:00011F1D  2376 0001:00011F40
  2377 0001:00011F51  2378 0001:00011F5A  2380 0001:00011F6B  2381 0001:00011F76
  2383 0001:00011F7F  2385 0001:00011F8A  2386 0001:00011F98  2395 0001:00011FAC
  2397 0001:00011FD1  2398 0001:00011FDC  2399 0001:00011FF3  2400 0001:00012013
  2401 0001:00012033  2403 0001:0001204B  2405 0001:00012053  2407 0001:0001206D
  2408 0001:00012099  2409 0001:000120B3  2410 0001:000120B9  2413 0001:000120DE
  2415 0001:000120F4  2417 0001:00012108  2421 0001:00012119  2444 0001:00012129
  2445 0001:00012138  2446 0001:00012141  2447 0001:0001214A  2448 0001:00012158
  2449 0001:0001216A  2450 0001:00012178  2451 0001:00012189  2452 0001:0001219D
  2405 0001:000121A0  2454 0001:000121A9  2457 0001:000121DC  2458 0001:000121E5
  2459 0001:000121F7  2462 0001:00012200  2463 0001:00012209  2464 0001:00012212
  2473 0001:0001221C  2475 0001:00012228  2476 0001:00012242  2478 0001:00012248
  2479 0001:00012257  2481 0001:00012271  2482 0001:0001228B  2483 0001:00012299
  2486 0001:000122A7  2488 0001:000122AC  2491 0001:000122B4  2492 0001:000122C3
  2493 0001:000122DD  2494 0001:000122F9  2500 0001:00012300  2501 0001:0001230F
  2502 0001:00012317  2503 0001:00012325  2505 0001:00012333  2506 0001:0001233D
  2508 0001:00012352  2509 0001:0001236B  2510 0001:00012379  2511 0001:00012384
  2512 0001:00012390  2514 0001:000123B1  2519 0001:000123CE  2523 0001:000123DE
  2526 0001:000123E4  2527 0001:000123F0  2528 0001:0001240B  2531 0001:00012414
  2532 0001:00012420  2533 0001:0001243D  2536 0001:00012448  2537 0001:00012457
  2538 0001:00012465  2541 0001:0001246C  2542 0001:00012478  2543 0001:00012495
  2548 0001:0001249C  2549 0001:000124BB  2550 0001:000124C0  2552 0001:000124E0
  2554 0001:000124F1  2557 0001:00012518  2558 0001:00012527  2559 0001:0001253B
  2562 0001:00012540  2563 0001:0001254C  2564 0001:00012557  2567 0001:0001255C
  2568 0001:00012568  2569 0001:00012579  2572 0001:00012580  2573 0001:0001258C
  2574 0001:000125A4  2577 0001:000125AC  2578 0001:000125BB  2579 0001:000125D3
  2582 0001:000125D8  2583 0001:000125E1  2584 0001:000125EA  2587 0001:000125F4
  2588 0001:00012614  2590 0001:0001261D  2591 0001:0001264B  2594 0001:00012650
  2596 0001:0001265C  2597 0001:0001268A  2600 0001:0001268C  2602 0001:00012693
  2604 0001:000126B3  2606 0001:000126D7  2609 0001:000127A4  2610 0001:000127B3
  2611 0001:000127D4  2618 0001:000127D8  2619 0001:00012804  2620 0001:0001280C
  2621 0001:00012818  2622 0001:00012830  2627 0001:00012843  2629 0001:00012852
  2632 0001:00012898  2635 0001:000128B6  2637 0001:000128D0  2639 0001:000128E8
  2642 0001:00012906  2643 0001:0001292C  2645 0001:00012936  2649 0001:00012943
  2650 0001:00012969  2652 0001:00012973  2654 0001:00012980  2656 0001:00012988
  2660 0001:000129EC  2661 0001:000129F5  2662 0001:000129FE  2667 0001:00012A08
  2668 0001:00012A11  2669 0001:00012A18  2670 0001:00012A2C  2673 0001:00012A39
  2674 0001:00012A40  2682 0001:00012A48  2683 0001:00012A59  2686 0001:00012A6F
  2687 0001:00012A7A  2690 0001:00012AC0  2692 0001:00012ACF  2695 0001:00012AD4
  2697 0001:00012AE3  2701 0001:00012AE8  2703 0001:00012AF7  2708 0001:00012AFC
  2709 0001:00012B14  2710 0001:00012B1E  2711 0001:00012B26  2712 0001:00012B30
  2713 0001:00012B41  2720 0001:00012B60  2721 0001:00012B7F  2722 0001:00012BA4
  2725 0001:00012BC8  2726 0001:00012BE7  2727 0001:00012C0C  2730 0001:00012C30
  2731 0001:00012C3F  2732 0001:00012C4F  2735 0001:00012C54  2736 0001:00012C63
  2737 0001:00012C74  2742 0001:00012C78  2743 0001:00012C88  2744 0001:00012C97
  2745 0001:00012CA5  2746 0001:00012CAE  2747 0001:00012CB8  2748 0001:00012CC8
  2750 0001:00012CDB  2751 0001:00012CEC  2752 0001:00012CF5  2755 0001:00012D26
  2756 0001:00012D32  2758 0001:00012D46  2759 0001:00012D54  2762 0001:00012DD4
  2763 0001:00012DF3  2764 0001:00012E18  2767 0001:00012E3C  2768 0001:00012E5B
  2769 0001:00012E80  2772 0001:00012EA4  2773 0001:00012EB0  2774 0001:00012EC3
  2779 0001:00012ECC  2780 0001:00012EDB  2781 0001:00012EEA  2782 0001:00012EF8
  2783 0001:00012F01  2784 0001:00012F0B  2786 0001:00012F19  2787 0001:00012F28
  2790 0001:00012F30  2791 0001:00012F3C  2792 0001:00012F4F  2795 0001:00012F58
  2796 0001:00012F64  2797 0001:00012F77  2800 0001:00012F80  2801 0001:00012F8C
  2802 0001:00012F9F  2807 0001:00012FA8  2808 0001:00012FB7  2809 0001:00012FC6
  2810 0001:00012FD4  2811 0001:00012FDD  2812 0001:00012FE7  2814 0001:00012FF5
  2815 0001:00013004  2818 0001:0001300C  2819 0001:00013018  2820 0001:00013025
  2823 0001:0001302C  2824 0001:00013038  2825 0001:00013045  2830 0001:0001304C
  2831 0001:0001305B  2832 0001:0001306A  2833 0001:00013073  2834 0001:00013081
  2835 0001:0001308B  2836 0001:00013099  2844 0001:000130A0  2845 0001:000130CC
  2847 0001:000130E2  2850 0001:00013145  2854 0001:0001315F  2858 0001:00013179
  2862 0001:00013193  2866 0001:000131AD  2870 0001:000131CC  2874 0001:000131E9
  2875 0001:00013205  2876 0001:0001320C  2880 0001:00013223  2881 0001:00013238
  2882 0001:0001323F  2886 0001:00013256  2890 0001:00013274  2892 0001:0001328C
  2896 0001:000132A3  2901 0001:000132BB  2902 0001:000132CC  2906 0001:000132DD
  2908 0001:000132E9  2913 0001:000132F7  2916 0001:00013303  2845 0001:00013306
  2917 0001:0001330F  2918 0001:00013317  2921 0001:00013388  2922 0001:00013397
  2923 0001:000133A8  2926 0001:000133AC  2927 0001:000133BB  2928 0001:000133CB
  2933 0001:000133D0  2934 0001:000133DF  2935 0001:000133EE  2936 0001:000133F7
  2937 0001:00013405  2938 0001:0001340F  2940 0001:0001341D  2941 0001:0001342B
  2944 0001:00013434  2945 0001:00013443  2946 0001:00013453  2949 0001:00013458
  2950 0001:00013467  2951 0001:00013478  2959 0001:0001347C  2960 0001:000134A2
  2961 0001:000134AE  2965 0001:000134F5  2969 0001:00013512  2973 0001:00013534
  2977 0001:00013556  2981 0001:0001358D  2985 0001:000135A0  2988 0001:000135B0
  2989 0001:000135BF  2990 0001:000135CA  2991 0001:000135D5  2992 0001:000135E3
  2994 0001:000135FB  2996 0001:0001361A  2997 0001:00013622  3003 0001:00013632
  3006 0001:0001365C  3007 0001:00013668  3009 0001:00013678  3012 0001:00013687
  3013 0001:00013695  3015 0001:000136A1  3018 0001:000136A9  3020 0001:000136BB
  3021 0001:000136CC  3024 0001:000136D4  3027 0001:000136D8  3028 0001:000136DF
  3029 0001:000136E6  3030 0001:000136F8  3031 0001:00013709  3032 0001:00013714
  3036 0001:00013718  3037 0001:00013733  3039 0001:00013740  3041 0001:0001375A
  3043 0001:00013768  3045 0001:00013773  3046 0001:00013781  3049 0001:00013878
  3050 0001:00013893  3051 0001:000138AA  3054 0001:000138CC  3055 0001:000138E7
  3056 0001:000138F1  3057 0001:000138FA  3058 0001:00013905  3059 0001:0001390D
  3060 0001:00013914  3061 0001:0001391B  3062 0001:0001392F  3065 0001:00013950
  3066 0001:00013961  3067 0001:00013969  3068 0001:00013971  3069 0001:0001397C
  3070 0001:0001398E  3071 0001:0001399F  3072 0001:000139AD  3075 0001:000139C0
  3076 0001:000139C9  3077 0001:000139DB  3080 0001:000139E4  3081 0001:000139F0
  3082 0001:00013A03  3086 0001:00013A0C  3087 0001:00013A1B  3089 0001:00013A20
  3091 0001:00013A29  3094 0001:00013A34  3097 0001:00013A42  3098 0001:00013A5E
  3099 0001:00013A65  3103 0001:00013A70  3104 0001:00013A7F  3105 0001:00013AA2
  3108 0001:00013AA8  3109 0001:00013AB4  3110 0001:00013ACD  3113 0001:00013AD4
  3114 0001:00013AE3  3115 0001:00013AFF  3121 0001:00013B04  3122 0001:00013B13
  3123 0001:00013B17  3124 0001:00013B25  3126 0001:00013B30  3128 0001:00013B39
  3131 0001:00013B44  3133 0001:00013B52  3134 0001:00013B66  3135 0001:00013B6E
  3137 0001:00013B74  3138 0001:00013B85  3143 0001:00013BA8  3145 0001:00013BB1
  3146 0001:00013BC2  3147 0001:00013BCA  3150 0001:00013BDA  3154 0001:00013C2C
  3155 0001:00013C38  3156 0001:00013C48  3159 0001:00013C50  3160 0001:00013C5F
  3161 0001:00013C66  3162 0001:00013C74  3164 0001:00013C7A  3166 0001:00013C8A
  3169 0001:00013C94  3170 0001:00013CA0  3171 0001:00013CB3  3174 0001:00013CBC
  3175 0001:00013CC5  3176 0001:00013CD7  3284 0001:00013CE0  3285 0001:00013CE9
  3286 0001:00013CF5  3289 0001:00013CFC  3290 0001:00013D08  3291 0001:00013D19
  3294 0001:00013D20  3295 0001:00013D2F  3297 0001:00013D3A  3298 0001:00013D48
  3303 0001:00013D50  3304 0001:00013D5C  3305 0001:00013D72  3309 0001:00013D7D
  3310 0001:00013DB0  3311 0001:00013DC6  3312 0001:00013DCF  3315 0001:00013DE5
  3316 0001:00013DF3  3319 0001:00013E78  3320 0001:00013E81  3321 0001:00013E8A
  3323 0001:00013EA0  3324 0001:00013EA5  3327 0001:00013EAC  3328 0001:00013EBB
  3329 0001:00013EC3  3331 0001:00013ECC  3333 0001:00013EEB  3340 0001:00013EF0
  3341 0001:00013F12  3343 0001:00013F43  3345 0001:00013F60  3346 0001:00013F71
  3348 0001:00013F7A  3352 0001:00013FAE  3356 0001:00013FB7  3358 0001:00013FC1
  3360 0001:00013FEF  3362 0001:00014014  3370 0001:00014039  3375 0001:00014062
  3376 0001:00014090  3377 0001:00014096  3380 0001:000140C3  3383 0001:000140DA
  3343 0001:000140DD  3385 0001:000140E6  3387 0001:000140ED  3392 0001:00014184
  3393 0001:0001418D  3394 0001:000141A1  3397 0001:000141A8  3398 0001:000141B4
  3399 0001:000141CB  3402 0001:000141D4  3403 0001:000141E0  3404 0001:000141F4
  3407 0001:000141F8  3408 0001:0001420A  3410 0001:00014215  3412 0001:00014221
  3413 0001:0001422F  3416 0001:00014249  3418 0001:0001424E  3421 0001:00014258
  3422 0001:0001427D  3423 0001:00014294  3426 0001:000142B8  3427 0001:000142C4
  3429 0001:000142D0  3431 0001:000142DC  3432 0001:000142EA  3435 0001:00014305
  3437 0001:0001430A  3440 0001:00014318  3441 0001:00014321  3442 0001:00014336
  3445 0001:00014340  3446 0001:0001434C  3448 0001:00014358  3450 0001:00014364
  3451 0001:00014372  3454 0001:0001438D  3456 0001:00014392  3459 0001:000143A0
  3460 0001:000143A9  3461 0001:000143C0  3464 0001:000143CC  3465 0001:000143D8
  3467 0001:000143E4  3469 0001:000143F0  3470 0001:000143FE  3473 0001:0001441B
  3475 0001:00014420  3478 0001:00014430  3479 0001:0001443C  3480 0001:00014450
  3483 0001:00014454  3484 0001:00014466  3486 0001:00014471  3488 0001:0001447D
  3489 0001:0001448B  3492 0001:000144A5  3494 0001:000144AA  3497 0001:000144B4
  3498 0001:000144CC  3500 0001:000144D6  3503 0001:000144F8  3504 0001:00014509
  3505 0001:00014514  3506 0001:00014522  3509 0001:00014534  3510 0001:0001453D
  3511 0001:00014551  3515 0001:00014558  3516 0001:00014565  3517 0001:00014578
  3520 0001:00014580  3521 0001:00014592  3523 0001:0001459D  3525 0001:000145A9
  3526 0001:000145B7  3529 0001:000145D1  3531 0001:000145D6  3540 0001:000145E0
  3541 0001:0001461C  3542 0001:0001462F  3543 0001:00014653  3544 0001:0001465B
  3545 0001:00014666  3546 0001:00014674  3547 0001:00014682  3548 0001:00014689
  3550 0001:00014697  3553 0001:000146D1  3555 0001:000146D7  3557 0001:00014702
  3564 0001:00014788  3565 0001:000147BC  3566 0001:000147CF  3567 0001:000147F3
  3568 0001:000147FB  3569 0001:00014809  3570 0001:00014814  3571 0001:0001481F
  3572 0001:00014826  3574 0001:00014834  3576 0001:0001486A  3578 0001:00014870
  3580 0001:0001489B  3585 0001:00014910  3586 0001:00014919  3590 0001:00014942
  3586 0001:00014950  3591 0001:00014969  3592 0001:00014986  3593 0001:00014991
  3596 0001:00014998  3597 0001:000149B3  3598 0001:000149BD  3599 0001:000149C6
  3600 0001:000149D8  3603 0001:000149F8  3604 0001:00014A09  3605 0001:00014A11
  3606 0001:00014A1C  3607 0001:00014A24  3608 0001:00014A32  3611 0001:00014A44
  3612 0001:00014A50  3613 0001:00014A63  3616 0001:00014A6C  3617 0001:00014A78
  3618 0001:00014A8E  3621 0001:00014A94  3622 0001:00014AA0  3623 0001:00014AB6
  3626 0001:00014ABC  3627 0001:00014AC8  3628 0001:00014AD6  3631 0001:00014ADC
  3632 0001:00014B01  3633 0001:00014B1E  3636 0001:00014B40  3637 0001:00014B4C
  3638 0001:00014B60  3641 0001:00014B68  3642 0001:00014B74  3643 0001:00014B8A
  3646 0001:00014B94  3647 0001:00014BA3  3648 0001:00014BBD  3653 0001:00014BC4
  3654 0001:00014BDF  3655 0001:00014BE9  3656 0001:00014BF2  3657 0001:00014BF9
  3660 0001:00014C18  3661 0001:00014C29  3662 0001:00014C31  3663 0001:00014C3F
  3666 0001:00014C54  3667 0001:00014C60  3668 0001:00014C6E  3671 0001:00014C74
  3672 0001:00014C7D  3674 0001:00014C86  3675 0001:00014C8D  3678 0001:00014C9F
  3679 0001:00014CAD  3688 0001:00014CB4  3689 0001:00014CD7  3690 0001:00014CE1

Line numbers for SQLiteTable3(SQLiteTable3.pas) segment .itext

  3681 0002:00000114  3682 0002:00000120  3683 0002:00000136  3685 0002:00000140
  3687 0002:00000151

Line numbers for SQLiteTable3(System.Generics.Collections.pas) segment .text

  2076 0001:00014D10  2078 0001:00014D1F  2079 0001:00014D39  2080 0001:00014D3E
  2082 0001:00014D63  2083 0001:00014D71  2080 0001:00014D74  2084 0001:00014D8D
  2085 0001:00014DAA

Line numbers for SQLiteTable3(System.Generics.Collections.pas) segment .text

  2054 0001:00014DB0  2055 0001:00014DB9  2056 0001:00014DC3

Line numbers for SQLiteTable3(System.Generics.Collections.pas) segment .text

  2062 0001:00014DCC  2063 0001:00014DD8  2064 0001:00014DE7  2065 0001:00014DF5
  2066 0001:00014E1A  2065 0001:00014E25  2066 0001:00014E3E  2067 0001:00014E5B
  2069 0001:00014E73  2071 0001:00014E83

Line numbers for SQLiteTable3(System.Generics.Collections.pas) segment .text

  2047 0001:00014E88  2048 0001:00014E91  2049 0001:00014E9C

Line numbers for SQLiteTable3(System.Generics.Collections.pas) segment .text

   588 0001:00014EA4   589 0001:00014EAD   590 0001:00014EBB

Line numbers for SQLiteTable3(System.Generics.Collections.pas) segment .text

   593 0001:00014EC4   594 0001:00014ED0   595 0001:00014EDB   596 0001:00014EE6
   597 0001:00014F03

Line numbers for SQLiteTable3(System.Generics.Collections.pas) segment .text

   600 0001:00014F08   601 0001:00014F14   602 0001:00014F1A   603 0001:00014F31
   604 0001:00014F3E   605 0001:00014F49   606 0001:00014F54   607 0001:00014F68
   608 0001:00014F71

Line numbers for SQLiteTable3(System.Generics.Collections.pas) segment .text

   611 0001:00014F78   612 0001:00014F84   613 0001:00014F95   614 0001:00014FAC
   615 0001:00014FBB

Line numbers for SQLiteTable3(System.Generics.Collections.pas) segment .text

   620 0001:00014FC4   621 0001:00014FD4   622 0001:00014FE5   624 0001:00014FFC
   625 0001:0001500B   627 0001:0001501A   628 0001:00015027   629 0001:00015034

Line numbers for SQLiteTable3(System.Generics.Collections.pas) segment .text

   634 0001:0001503C   635 0001:00015048   636 0001:00015056   637 0001:0001505C
   640 0001:00015064   641 0001:0001506C   642 0001:00015072   643 0001:00015077
   644 0001:0001507F   645 0001:0001508A

Line numbers for SQLiteTable3(System.Generics.Collections.pas) segment .text

   648 0001:00015090   649 0001:0001509C   650 0001:000150AC   651 0001:000150B9
   652 0001:000150BF   653 0001:000150C4

Line numbers for SQLiteTable3(System.Generics.Collections.pas) segment .text

   826 0001:000150C8   827 0001:000150D8   828 0001:000150E9   829 0001:00015100
   830 0001:0001510F   831 0001:0001511D   832 0001:00015123   834 0001:0001512E
   835 0001:0001515A   837 0001:00015175   838 0001:00015183

Line numbers for SQLiteTable3(System.Generics.Collections.pas) segment .text

   688 0001:00015188   689 0001:00015191   690 0001:0001519C

Line numbers for SQLiteTable3(System.Generics.Collections.pas) segment .text

   656 0001:000151A4   657 0001:000151B4   658 0001:000151BE   659 0001:000151D1

Line numbers for SQLiteTable3(System.Generics.Collections.pas) segment .text

   662 0001:000151D8   663 0001:00015203   664 0001:0001521D

Line numbers for SQLiteTable3(System.Generics.Collections.pas) segment .text

   667 0001:0001525C   668 0001:0001528B   669 0001:00015295   670 0001:000152A3
   671 0001:000152AC   672 0001:000152C7

Line numbers for SQLiteTable3(System.Generics.Collections.pas) segment .text

   675 0001:00015304   676 0001:00015333   677 0001:0001533D   678 0001:00015358
   679 0001:00015365

Line numbers for SQLiteTable3(System.Generics.Collections.pas) segment .text

   682 0001:000153A4   683 0001:000153B5   684 0001:000153BF   685 0001:000153CD

Line numbers for SQLiteTable3(System.Generics.Collections.pas) segment .text

   693 0001:000153E0   694 0001:000153ED   695 0001:000153FC   696 0001:00015405
   697 0001:00015417   698 0001:0001541D   699 0001:0001542A

Line numbers for SQLiteTable3(System.Generics.Collections.pas) segment .text

   702 0001:00015434   703 0001:00015443   704 0001:00015458

Line numbers for SQLiteTable3(System.Generics.Collections.pas) segment .text

   707 0001:0001545C   708 0001:00015468   709 0001:00015479

Line numbers for SQLiteTable3(System.Generics.Collections.pas) segment .text

   712 0001:00015480   713 0001:0001548C   714 0001:0001549D

Line numbers for SQLiteTable3(System.Generics.Collections.pas) segment .text

   728 0001:000154A4   729 0001:000154B4   730 0001:000154C5   732 0001:000154DC
   733 0001:000154EB   735 0001:000154F6   736 0001:00015522   738 0001:0001553A
   739 0001:00015549   740 0001:0001554F   741 0001:0001555C

Line numbers for SQLiteTable3(System.Generics.Collections.pas) segment .text

   746 0001:00015564   747 0001:00015574   748 0001:00015585   750 0001:0001559C
   751 0001:000155AE   753 0001:000155B9   754 0001:000155E6   757 0001:00015600
   758 0001:00015614   757 0001:0001562F   760 0001:00015634   762 0001:0001563E
   763 0001:00015652   762 0001:00015668   764 0001:0001566D

Line numbers for SQLiteTable3(System.Generics.Collections.pas) segment .text

   769 0001:00015674   770 0001:00015697   772 0001:000156AF   773 0001:000156BD
   770 0001:000156C0   774 0001:000156CC   775 0001:000156D4

Line numbers for SQLiteTable3(System.Generics.Collections.pas) segment .text

   780 0001:000156F8   781 0001:00015707   783 0001:0001572C   784 0001:0001573A
   781 0001:0001573D   785 0001:00015756   786 0001:00015773

Line numbers for SQLiteTable3(System.Generics.Collections.pas) segment .text

   817 0001:00015778   818 0001:00015784   819 0001:00015792   820 0001:00015798
   821 0001:000157A3

Line numbers for SQLiteTable3(System.Generics.Collections.pas) segment .text

   841 0001:000157AC   842 0001:000157B8   843 0001:000157C5

Line numbers for SQLiteTable3(System.Generics.Collections.pas) segment .text

   849 0001:000157CC   850 0001:000157EF   852 0001:00015813   853 0001:0001582A
   856 0001:00015834   857 0001:0001584E   859 0001:00015868   860 0001:00015879
   862 0001:0001587F   863 0001:000158A5   867 0001:000158C6   869 0001:000158DF
   871 0001:000158E8   872 0001:00015900   871 0001:00015916   873 0001:0001591B

Line numbers for SQLiteTable3(System.Generics.Collections.pas) segment .text

   800 0001:00015944   801 0001:00015950   802 0001:0001595E   803 0001:00015964
   806 0001:0001596B   807 0001:0001597A   809 0001:00015987

Line numbers for SQLiteTable3(System.Generics.Collections.pas) segment .text

   791 0001:00015990   792 0001:0001599F   793 0001:000159AE   794 0001:000159C6
   795 0001:000159D5

Line numbers for SQLiteTable3(System.Generics.Collections.pas) segment .text

   914 0001:000159DC   915 0001:000159EC   917 0001:000159F8   918 0001:00015A09
   920 0001:00015A20   921 0001:00015A2F   922 0001:00015A3D   923 0001:00015A45
   925 0001:00015A6E   927 0001:00015A97   928 0001:00015AAF   929 0001:00015ABE

Line numbers for SQLiteTable3(System.Generics.Collections.pas) segment .text

   812 0001:00015AC4   813 0001:00015ACD   814 0001:00015ADA

Line numbers for SQLiteTable3(System.Generics.Collections.pas) segment .text

   897 0001:00015AE4   898 0001:00015AED   899 0001:00015AFF

Line numbers for SQLiteTable3(System.Generics.Collections.pas) segment .text

   876 0001:00015B08   877 0001:00015B0F   878 0001:00015B19   879 0001:00015B23

Line numbers for SQLiteTable3(System.Generics.Collections.pas) segment .text

   882 0001:00015B28   883 0001:00015B34   884 0001:00015B45

Line numbers for SQLiteTable3(System.Generics.Collections.pas) segment .text

   889 0001:00015B4C   890 0001:00015B59   891 0001:00015B6F   892 0001:00015B8D
   890 0001:00015B98   893 0001:00015B9D   894 0001:00015BA4

Line numbers for SQLiteTable3(System.Generics.Collections.pas) segment .text

   904 0001:00015BAC   905 0001:00015BB9   906 0001:00015BC8   907 0001:00015BE6
   905 0001:00015BF1   908 0001:00015BF7   909 0001:00015BFE

Line numbers for SQLiteTable3(System.Generics.Collections.pas) segment .text

   935 0001:00015C08   936 0001:00015C11   937 0001:00015C16   938 0001:00015C20
   940 0001:00015C28   941 0001:00015C37   942 0001:00015C4F   943 0001:00015C5E
   944 0001:00015C61   938 0001:00015C64   946 0001:00015C6C

Line numbers for SQLiteTable3(System.Generics.Collections.pas) segment .text

   949 0001:00015C70   950 0001:00015C79   951 0001:00015CA6

Line numbers for SQLiteTable3(System.Generics.Collections.pas) segment .text

   954 0001:00015CAC   955 0001:00015CB8   956 0001:00015CE2

Line numbers for SQLiteTable3(System.Generics.Collections.pas) segment .text

   717 0001:00015CE8   718 0001:00015CF7   719 0001:00015D2F

Line numbers for SQLiteTable3(System.Generics.Collections.pas) segment .text

   723 0001:00015D38   724 0001:00015D47   725 0001:00015D7C

Line numbers for SQLiteTable3(System.Generics.Collections.pas) segment .text

   968 0001:00015D88   969 0001:00015D8F   970 0001:00015D9D

Line numbers for SQLiteTable3(System.Generics.Collections.pas) segment .text

   961 0001:00015DA0   962 0001:00015DAC   963 0001:00015DC9   964 0001:00015DDF
   963 0001:00015DF8   965 0001:00015DFD

Line numbers for SQLiteTable3(System.Generics.Collections.pas) segment .text

   973 0001:00015E04   974 0001:00015E0D   975 0001:00015E1F

Line numbers for SQLiteTable3(System.Generics.Collections.pas) segment .text

   997 0001:00015E28   998 0001:00015E31   999 0001:00015E45

Line numbers for SQLiteTable3(System.Generics.Collections.pas) segment .text

   987 0001:00015E4C   988 0001:00015E55   989 0001:00015E60

Line numbers for SQLiteTable3(System.Generics.Collections.pas) segment .text

   992 0001:00015E68   993 0001:00015E71   994 0001:00015E7C

Line numbers for SQLiteTable3(System.Generics.Collections.pas) segment .text

   980 0001:00015E84   981 0001:00015E9F   982 0001:00015EA9   983 0001:00015EB2
   984 0001:00015EBC

Line numbers for SQLiteTable3(System.Generics.Collections.pas) segment .text

  1002 0001:00015EDC  1003 0001:00015EE5  1004 0001:00015EF6  1005 0001:00015EFC
  1006 0001:00015F02  1007 0001:00015F15

Line numbers for SQLiteTable3(System.Generics.Collections.pas) segment .text

  1338 0001:00015F1C  1339 0001:00015F2B  1340 0001:00015F36  1341 0001:00015F3F

Line numbers for SQLiteTable3(System.Generics.Collections.pas) segment .text

  2076 0001:00015F48  2078 0001:00015F73  2079 0001:00015F8D  2080 0001:00015F92
  2082 0001:00015FB7  2083 0001:00015FD0  2080 0001:00015FD3  2084 0001:00015FEC
  2085 0001:00016009

Line numbers for SQLiteTable3(System.Generics.Collections.pas) segment .text

  2054 0001:00016030  2055 0001:00016039  2056 0001:00016043

Line numbers for SQLiteTable3(System.Generics.Collections.pas) segment .text

  2062 0001:0001604C  2063 0001:00016074  2064 0001:00016083  2065 0001:00016091
  2066 0001:000160B6  2065 0001:000160C1  2066 0001:000160DA  2067 0001:000160F7
  2069 0001:0001610F  2071 0001:0001611F

Line numbers for SQLiteTable3(System.Generics.Collections.pas) segment .text

  2047 0001:00016148  2048 0001:00016151  2049 0001:0001615C

Line numbers for SQLiteTable3(System.Generics.Collections.pas) segment .text

  1372 0001:00016164  1373 0001:00016170  1374 0001:0001617B  1376 0001:00016192
  1377 0001:00016198  1380 0001:000161A4  1381 0001:000161AB  1382 0001:000161B3
  1381 0001:000161B6  1383 0001:000161BE  1385 0001:000161C9

Line numbers for SQLiteTable3(System.Generics.Collections.pas) segment .text

  1351 0001:000161D0  1352 0001:000161F2  1354 0001:00016206  1355 0001:0001620C
  1357 0001:00016211  1358 0001:00016225  1359 0001:0001623F  1360 0001:00016257
  1359 0001:0001626A  1361 0001:0001626F  1362 0001:00016283  1364 0001:00016296
  1365 0001:000162AE  1366 0001:000162BD  1364 0001:000162EF  1367 0001:000162F4

Line numbers for SQLiteTable3(System.Generics.Collections.pas) segment .text

  1390 0001:00016320  1391 0001:00016329  1392 0001:00016339  1393 0001:0001633F
  1394 0001:00016346  1395 0001:00016351

Line numbers for SQLiteTable3(System.Generics.Collections.pas) segment .text

  1400 0001:00016358  1401 0001:00016368  1402 0001:00016377  1404 0001:00016383
  1405 0001:00016395  1408 0001:0001639B  1411 0001:000163AD  1412 0001:000163B3
  1415 0001:000163B8  1416 0001:000163E2  1418 0001:000163EA  1419 0001:000163ED
  1420 0001:000163FD  1406 0001:00016402  1422 0001:00016404

Line numbers for SQLiteTable3(System.Generics.Collections.pas) segment .text

  1427 0001:0001640C  1431 0001:00016418  1432 0001:00016434

Line numbers for SQLiteTable3(System.Generics.Collections.pas) segment .text

  1437 0001:0001643C  1438 0001:00016448  1439 0001:00016463  1440 0001:00016469
  1441 0001:00016480  1442 0001:00016493

Line numbers for SQLiteTable3(System.Generics.Collections.pas) segment .text

  1448 0001:0001649C  1449 0001:000164AC  1450 0001:000164C7  1451 0001:000164CD
  1453 0001:000164E4  1454 0001:000164F7  1456 0001:0001650A  1457 0001:00016517
  1458 0001:00016524

Line numbers for SQLiteTable3(System.Generics.Collections.pas) segment .text

  1463 0001:0001652C  1464 0001:0001653B  1465 0001:0001654E  1466 0001:00016560
  1467 0001:00016578  1468 0001:0001658B

Line numbers for SQLiteTable3(System.Generics.Collections.pas) segment .text

  1675 0001:00016594  1676 0001:000165A4  1677 0001:000165B6  1678 0001:000165CE
  1679 0001:000165E1  1681 0001:000165E7  1682 0001:000165F4  1683 0001:00016601

Line numbers for SQLiteTable3(System.Generics.Collections.pas) segment .text

  1693 0001:00016608  1694 0001:00016618  1695 0001:0001662B  1697 0001:0001663E
  1698 0001:0001664B  1699 0001:00016658

Line numbers for SQLiteTable3(System.Generics.Collections.pas) segment .text

  1560 0001:00016660  1561 0001:00016670  1562 0001:00016681  1563 0001:00016687
  1581 0001:00016691  1582 0001:000166A4  1584 0001:000166B7  1587 0001:000166BD
  1588 0001:000166C0  1589 0001:000166D0  1591 0001:000166D5  1592 0001:000166E7
  1595 0001:000166ED  1596 0001:000166FF  1598 0001:00016711  1599 0001:0001673A
  1601 0001:00016740  1585 0001:00016753  1605 0001:00016758  1606 0001:0001676B
  1607 0001:00016780  1608 0001:00016792  1610 0001:00016798  1611 0001:000167A6
  1612 0001:000167B4

Line numbers for SQLiteTable3(System.Generics.Collections.pas) segment .text

  1686 0001:000167C0  1687 0001:000167C9  1688 0001:000167D4

Line numbers for SQLiteTable3(System.Generics.Collections.pas) segment .text

  1471 0001:000167DC  1472 0001:000167EC  1473 0001:000167F6  1474 0001:00016809

Line numbers for SQLiteTable3(System.Generics.Collections.pas) segment .text

  1477 0001:00016810  1478 0001:00016820  1479 0001:0001682A  1480 0001:0001683D

Line numbers for SQLiteTable3(System.Generics.Collections.pas) segment .text

  1483 0001:00016844  1484 0001:0001685F  1485 0001:0001686E

Line numbers for SQLiteTable3(System.Generics.Collections.pas) segment .text

  1488 0001:00016890  1489 0001:000168AB  1490 0001:000168BB

Line numbers for SQLiteTable3(System.Generics.Collections.pas) segment .text

  1495 0001:000168DC  1496 0001:0001690B  1497 0001:00016915  1498 0001:0001691B
  1499 0001:00016932  1500 0001:00016940  1501 0001:00016949  1502 0001:0001695F
  1503 0001:0001696A

Line numbers for SQLiteTable3(System.Generics.Collections.pas) segment .text

  1509 0001:000169AC  1510 0001:000169E3  1511 0001:000169F1  1512 0001:00016A16
  1511 0001:00016A24  1512 0001:00016A3D  1513 0001:00016A5A

Line numbers for SQLiteTable3(System.Generics.Collections.pas) segment .text

  1520 0001:00016A9C  1521 0001:00016AD3  1522 0001:00016AE3  1523 0001:00016B08
  1522 0001:00016B16  1523 0001:00016B2F  1524 0001:00016B4C

Line numbers for SQLiteTable3(System.Generics.Collections.pas) segment .text

  1527 0001:00016B90  1528 0001:00016BA1  1529 0001:00016BA9  1530 0001:00016BB4
  1531 0001:00016BBF  1532 0001:00016BCD

Line numbers for SQLiteTable3(System.Generics.Collections.pas) segment .text

  1537 0001:00016BE0  1538 0001:00016BEF  1539 0001:00016BFD  1541 0001:00016C05
  1542 0001:00016C13  1543 0001:00016C24  1544 0001:00016C2A  1546 0001:00016C41
  1547 0001:00016C59

Line numbers for SQLiteTable3(System.Generics.Collections.pas) segment .text

  1615 0001:00016C60  1616 0001:00016C6C  1617 0001:00016C86

Line numbers for SQLiteTable3(System.Generics.Collections.pas) segment .text

  1622 0001:00016C8C  1623 0001:00016C9B  1624 0001:00016CA9  1625 0001:00016CBA
  1626 0001:00016CC0  1628 0001:00016CCF  1629 0001:00016CEC

Line numbers for SQLiteTable3(System.Generics.Collections.pas) segment .text

  1635 0001:00016CF0  1636 0001:00016D0D  1637 0001:00016D21  1638 0001:00016D29
  1639 0001:00016D44  1640 0001:00016D4E  1642 0001:00016D56  1644 0001:00016D6E
  1646 0001:00016D7D  1647 0001:00016D94  1648 0001:00016DAB  1642 0001:00016DAE
  1649 0001:00016DB3

Line numbers for SQLiteTable3(System.Generics.Collections.pas) segment .text

  1657 0001:00016DDC  1659 0001:00016DE3  1660 0001:00016DF2

Line numbers for SQLiteTable3(System.Generics.Collections.pas) segment .text

  1665 0001:00016DF8  1666 0001:00016E07  1667 0001:00016E22  1668 0001:00016E2A
  1669 0001:00016E30  1671 0001:00016E47  1672 0001:00016E4E

Line numbers for SQLiteTable3(System.Generics.Collections.pas) segment .text

  1705 0001:00016E58  1706 0001:00016E67  1707 0001:00016E75  1708 0001:00016E7D
  1709 0001:00016E8B  1710 0001:00016E9C  1711 0001:00016EA2  1713 0001:00016EB2
  1714 0001:00016ECA

Line numbers for SQLiteTable3(System.Generics.Collections.pas) segment .text

  1717 0001:00016ED0  1718 0001:00016EDC  1719 0001:00016EFA

Line numbers for SQLiteTable3(System.Generics.Collections.pas) segment .text

  1725 0001:00016F04  1726 0001:00016F24  1728 0001:00016F2C  1729 0001:00016F47
  1730 0001:00016F78  1728 0001:00016F81  1731 0001:00016F86  1732 0001:00016F8A

Line numbers for SQLiteTable3(System.Generics.Collections.pas) segment .text

  1652 0001:00016FB0  1653 0001:00016FBC  1654 0001:00016FCD

Line numbers for SQLiteTable3(System.Generics.Collections.pas) segment .text

  1740 0001:00016FD4  1741 0001:00016FDD  1742 0001:00016FE6  1743 0001:00016FFB
  1744 0001:00017004

Line numbers for SQLiteTable3(System.Generics.Collections.pas) segment .text

  1747 0001:0001700C  1748 0001:00017015  1749 0001:0001701E  1750 0001:00017033
  1751 0001:0001703C

Line numbers for SQLiteTable3(System.Generics.Collections.pas) segment .text

  1735 0001:00017044  1736 0001:0001704D  1737 0001:0001705F

Line numbers for SQLiteTable3(System.Generics.Collections.pas) segment .text

  2076 0001:00017068  2078 0001:0001708B  2079 0001:000170A5  2080 0001:000170AA
  2082 0001:000170CF  2083 0001:000170E2  2080 0001:000170E5  2084 0001:000170FE
  2085 0001:0001711B

Line numbers for SQLiteTable3(System.Generics.Collections.pas) segment .text

  2054 0001:00017140  2055 0001:00017149  2056 0001:00017153

Line numbers for SQLiteTable3(System.Generics.Collections.pas) segment .text

  2062 0001:0001715C  2063 0001:0001717B  2064 0001:0001718A  2065 0001:00017198
  2066 0001:000171BD  2065 0001:000171C8  2066 0001:000171E1  2067 0001:000171FE
  2069 0001:00017216  2071 0001:00017226

Line numbers for SQLiteTable3(System.Generics.Collections.pas) segment .text

  2047 0001:00017248  2048 0001:00017251  2049 0001:0001725C

Line numbers for SQLiteTable3(System.Generics.Collections.pas) segment .text

  2030 0001:00017264  2031 0001:0001726D  2032 0001:00017279

Line numbers for SQLiteTable3(System.Generics.Collections.pas) segment .text

  2025 0001:00017280  2026 0001:00017289  2027 0001:00017294

Line numbers for SQLiteTable3(System.Generics.Collections.pas) segment .text

  2019 0001:0001729C  2020 0001:000172B7  2021 0001:000172C1  2022 0001:000172CA

Line numbers for SQLiteTable3(System.Generics.Collections.pas) segment .text

  2035 0001:000172EC  2036 0001:000172F5  2037 0001:0001730A

Line numbers for SQLiteTable3(System.Generics.Collections.pas) segment .text

  2040 0001:00017314  2041 0001:00017320  2042 0001:00017334

Line numbers for SQLiteTable3(System.Generics.Collections.pas) segment .text

  1809 0001:00017338  1810 0001:00017344  1811 0001:00017362

Line numbers for SQLiteTable3(System.Generics.Collections.pas) segment .text

  1799 0001:00017368  1800 0001:00017374  1801 0001:0001737F

Line numbers for SQLiteTable3(System.Generics.Collections.pas) segment .text

  1804 0001:00017384  1805 0001:0001738D  1806 0001:00017398

Line numbers for SQLiteTable3(System.Generics.Collections.pas) segment .text

  1792 0001:000173A0  1793 0001:000173BB  1794 0001:000173C5  1795 0001:000173CF
  1796 0001:000173D8

Line numbers for SQLiteTable3(System.Generics.Collections.pas) segment .text

  1814 0001:000173F8  1817 0001:00017403  1818 0001:00017409  1819 0001:00017421
  1815 0001:00017427  1821 0001:0001743E  1822 0001:00017442

Line numbers for SQLiteTable3(System.Generics.Collections.pas) segment .text

  2076 0001:0001744C  2078 0001:0001745B  2079 0001:00017475  2080 0001:0001747A
  2082 0001:0001749F  2083 0001:000174AD  2080 0001:000174B0  2084 0001:000174C9
  2085 0001:000174E6

Line numbers for SQLiteTable3(System.Generics.Collections.pas) segment .text

  2054 0001:000174EC  2055 0001:000174F5  2056 0001:000174FF

Line numbers for SQLiteTable3(System.Generics.Collections.pas) segment .text

  2062 0001:00017508  2063 0001:00017514  2064 0001:00017523  2065 0001:00017531
  2066 0001:00017556  2065 0001:00017561  2066 0001:0001757A  2067 0001:00017597
  2069 0001:000175AF  2071 0001:000175BF

Line numbers for SQLiteTable3(System.Generics.Collections.pas) segment .text

  2047 0001:000175C4  2048 0001:000175CD  2049 0001:000175D8

Line numbers for SQLiteTable3(System.Generics.Collections.pas) segment .text

  2001 0001:000175E0  2002 0001:000175E9  2003 0001:000175F5

Line numbers for SQLiteTable3(System.Generics.Collections.pas) segment .text

  1996 0001:000175FC  1997 0001:00017605  1998 0001:00017610

Line numbers for SQLiteTable3(System.Generics.Collections.pas) segment .text

  1990 0001:00017618  1991 0001:00017633  1992 0001:0001763D  1993 0001:00017646

Line numbers for SQLiteTable3(System.Generics.Collections.pas) segment .text

  2006 0001:00017668  2007 0001:00017671  2008 0001:00017686

Line numbers for SQLiteTable3(System.Generics.Collections.pas) segment .text

  2011 0001:00017690  2012 0001:0001769C  2013 0001:000176B0

Line numbers for SQLiteTable3(System.Generics.Collections.pas) segment .text

  1844 0001:000176B4  1845 0001:000176BD  1846 0001:000176D6

Line numbers for SQLiteTable3(System.Generics.Collections.pas) segment .text

  1834 0001:000176E0  1835 0001:000176E9  1836 0001:000176F4

Line numbers for SQLiteTable3(System.Generics.Collections.pas) segment .text

  1839 0001:000176FC  1840 0001:00017705  1841 0001:00017710

Line numbers for SQLiteTable3(System.Generics.Collections.pas) segment .text

  1827 0001:00017718  1828 0001:00017733  1829 0001:0001773D  1830 0001:00017747
  1831 0001:00017750

Line numbers for SQLiteTable3(System.Generics.Collections.pas) segment .text

  1849 0001:00017770  1852 0001:0001777B  1853 0001:00017781  1854 0001:00017799
  1850 0001:0001779F  1856 0001:000177B6  1857 0001:000177BA

Line numbers for SQLiteTable3(System.Generics.Collections.pas) segment .text

  1773 0001:000177C4  1774 0001:000177D0  1775 0001:000177EE  1776 0001:0001780A

Line numbers for SQLiteTable3(System.Generics.Collections.pas) segment .text

  1763 0001:00017810  1764 0001:0001781C  1765 0001:00017827

Line numbers for SQLiteTable3(System.Generics.Collections.pas) segment .text

  1768 0001:0001782C  1769 0001:00017835  1770 0001:00017840

Line numbers for SQLiteTable3(System.Generics.Collections.pas) segment .text

  1756 0001:00017848  1757 0001:00017863  1758 0001:0001786D  1759 0001:00017877
  1760 0001:00017880

Line numbers for SQLiteTable3(System.Generics.Collections.pas) segment .text

  1779 0001:000178A0  1782 0001:000178AB  1783 0001:000178B1  1784 0001:000178C9
  1780 0001:000178CF  1786 0001:000178E6  1787 0001:000178EA

Line numbers for SQLiteTable3(System.Generics.Collections.pas) segment .text

  2076 0001:000178F4  2078 0001:00017903  2079 0001:0001791D  2080 0001:00017922
  2082 0001:00017947  2083 0001:00017955  2080 0001:00017958  2084 0001:00017971
  2085 0001:0001798E

Line numbers for SQLiteTable3(System.Generics.Collections.pas) segment .text

  2054 0001:00017994  2055 0001:0001799D  2056 0001:000179A7

Line numbers for SQLiteTable3(System.Generics.Collections.pas) segment .text

  2062 0001:000179B0  2063 0001:000179BC  2064 0001:000179CB  2065 0001:000179D9
  2066 0001:000179FE  2065 0001:00017A09  2066 0001:00017A22  2067 0001:00017A3F
  2069 0001:00017A57  2071 0001:00017A67

Line numbers for SQLiteTable3(System.Generics.Collections.pas) segment .text

  2047 0001:00017A6C  2048 0001:00017A75  2049 0001:00017A80

Line numbers for SQLiteTable3(System.Generics.Collections.pas) segment .text

   588 0001:00017A88   589 0001:00017A91   590 0001:00017A9F

Line numbers for SQLiteTable3(System.Generics.Collections.pas) segment .text

   593 0001:00017AA8   594 0001:00017AB4   595 0001:00017ABF   596 0001:00017ACA
   597 0001:00017AE7

Line numbers for SQLiteTable3(System.Generics.Collections.pas) segment .text

   600 0001:00017AEC   601 0001:00017AF8   602 0001:00017AFE   603 0001:00017B15
   604 0001:00017B22   605 0001:00017B2D   606 0001:00017B38   607 0001:00017B4C
   608 0001:00017B55

Line numbers for SQLiteTable3(System.Generics.Collections.pas) segment .text

   611 0001:00017B5C   612 0001:00017B68   613 0001:00017B79   614 0001:00017B90
   615 0001:00017B9F

Line numbers for SQLiteTable3(System.Generics.Collections.pas) segment .text

   620 0001:00017BA8   621 0001:00017BB8   622 0001:00017BC9   624 0001:00017BE0
   625 0001:00017BEF   627 0001:00017BFE   628 0001:00017C0B   629 0001:00017C18

Line numbers for SQLiteTable3(System.Generics.Collections.pas) segment .text

   634 0001:00017C20   635 0001:00017C2C   636 0001:00017C3A   637 0001:00017C40
   640 0001:00017C48   641 0001:00017C50   642 0001:00017C56   643 0001:00017C5B
   644 0001:00017C63   645 0001:00017C6E

Line numbers for SQLiteTable3(System.Generics.Collections.pas) segment .text

   648 0001:00017C74   649 0001:00017C80   650 0001:00017C90   651 0001:00017C9D
   652 0001:00017CA3   653 0001:00017CA8

Line numbers for SQLiteTable3(System.Generics.Collections.pas) segment .text

   826 0001:00017CAC   827 0001:00017CBC   828 0001:00017CCD   829 0001:00017CE4
   830 0001:00017CF3   831 0001:00017D01   832 0001:00017D07   834 0001:00017D12
   835 0001:00017D3E   837 0001:00017D59   838 0001:00017D67

Line numbers for SQLiteTable3(System.Generics.Collections.pas) segment .text

   688 0001:00017D6C   689 0001:00017D75   690 0001:00017D80

Line numbers for SQLiteTable3(System.Generics.Collections.pas) segment .text

   656 0001:00017D88   657 0001:00017D98   658 0001:00017DA2   659 0001:00017DB5

Line numbers for SQLiteTable3(System.Generics.Collections.pas) segment .text

   662 0001:00017DBC   663 0001:00017DE7   664 0001:00017E01

Line numbers for SQLiteTable3(System.Generics.Collections.pas) segment .text

   667 0001:00017E40   668 0001:00017E6F   669 0001:00017E79   670 0001:00017E87
   671 0001:00017E90   672 0001:00017EAB

Line numbers for SQLiteTable3(System.Generics.Collections.pas) segment .text

   675 0001:00017EE8   676 0001:00017F17   677 0001:00017F21   678 0001:00017F3C
   679 0001:00017F49

Line numbers for SQLiteTable3(System.Generics.Collections.pas) segment .text

   682 0001:00017F88   683 0001:00017F99   684 0001:00017FA3   685 0001:00017FB1

Line numbers for SQLiteTable3(System.Generics.Collections.pas) segment .text

   693 0001:00017FC4   694 0001:00017FD1   695 0001:00017FE0   696 0001:00017FE9
   697 0001:00017FFB   698 0001:00018001   699 0001:0001800E

Line numbers for SQLiteTable3(System.Generics.Collections.pas) segment .text

   702 0001:00018018   703 0001:00018027   704 0001:0001803C

Line numbers for SQLiteTable3(System.Generics.Collections.pas) segment .text

   707 0001:00018040   708 0001:0001804C   709 0001:0001805D

Line numbers for SQLiteTable3(System.Generics.Collections.pas) segment .text

   712 0001:00018064   713 0001:00018070   714 0001:00018081

Line numbers for SQLiteTable3(System.Generics.Collections.pas) segment .text

   728 0001:00018088   729 0001:00018098   730 0001:000180A9   732 0001:000180C0
   733 0001:000180CF   735 0001:000180DA   736 0001:00018106   738 0001:0001811E
   739 0001:0001812D   740 0001:00018133   741 0001:00018140

Line numbers for SQLiteTable3(System.Generics.Collections.pas) segment .text

   746 0001:00018148   747 0001:00018158   748 0001:00018169   750 0001:00018180
   751 0001:00018192   753 0001:0001819D   754 0001:000181CA   757 0001:000181E4
   758 0001:000181F8   757 0001:00018213   760 0001:00018218   762 0001:00018222
   763 0001:00018236   762 0001:0001824C   764 0001:00018251

Line numbers for SQLiteTable3(System.Generics.Collections.pas) segment .text

   769 0001:00018258   770 0001:0001827B   772 0001:00018293   773 0001:000182A1
   770 0001:000182A4   774 0001:000182B0   775 0001:000182B8

Line numbers for SQLiteTable3(System.Generics.Collections.pas) segment .text

   780 0001:000182DC   781 0001:000182EB   783 0001:00018310   784 0001:0001831E
   781 0001:00018321   785 0001:0001833A   786 0001:00018357

Line numbers for SQLiteTable3(System.Generics.Collections.pas) segment .text

   817 0001:0001835C   818 0001:00018368   819 0001:00018376   820 0001:0001837C
   821 0001:00018387

Line numbers for SQLiteTable3(System.Generics.Collections.pas) segment .text

   841 0001:00018390   842 0001:0001839C   843 0001:000183A9

Line numbers for SQLiteTable3(System.Generics.Collections.pas) segment .text

   849 0001:000183B0   850 0001:000183D3   852 0001:000183F7   853 0001:0001840E
   856 0001:00018418   857 0001:00018432   859 0001:0001844C   860 0001:0001845D
   862 0001:00018463   863 0001:00018489   867 0001:000184AA   869 0001:000184C3
   871 0001:000184CC   872 0001:000184E4   871 0001:000184FA   873 0001:000184FF

Line numbers for SQLiteTable3(System.Generics.Collections.pas) segment .text

   800 0001:00018528   801 0001:00018534   802 0001:00018542   803 0001:00018548
   806 0001:0001854F   807 0001:0001855E   809 0001:0001856B

Line numbers for SQLiteTable3(System.Generics.Collections.pas) segment .text

   791 0001:00018574   792 0001:00018583   793 0001:00018592   794 0001:000185AA
   795 0001:000185B9

Line numbers for SQLiteTable3(System.Generics.Collections.pas) segment .text

   914 0001:000185C0   915 0001:000185D0   917 0001:000185DC   918 0001:000185ED
   920 0001:00018604   921 0001:00018613   922 0001:00018621   923 0001:00018629
   925 0001:00018652   927 0001:0001867B   928 0001:00018693   929 0001:000186A2

Line numbers for SQLiteTable3(System.Generics.Collections.pas) segment .text

   812 0001:000186A8   813 0001:000186B1   814 0001:000186BE

Line numbers for SQLiteTable3(System.Generics.Collections.pas) segment .text

   897 0001:000186C8   898 0001:000186D1   899 0001:000186E3

Line numbers for SQLiteTable3(System.Generics.Collections.pas) segment .text

   876 0001:000186EC   877 0001:000186F3   878 0001:000186FD   879 0001:00018707

Line numbers for SQLiteTable3(System.Generics.Collections.pas) segment .text

   882 0001:0001870C   883 0001:00018718   884 0001:00018729

Line numbers for SQLiteTable3(System.Generics.Collections.pas) segment .text

   889 0001:00018730   890 0001:0001873D   891 0001:00018753   892 0001:00018771
   890 0001:0001877C   893 0001:00018781   894 0001:00018788

Line numbers for SQLiteTable3(System.Generics.Collections.pas) segment .text

   904 0001:00018790   905 0001:0001879D   906 0001:000187AC   907 0001:000187CA
   905 0001:000187D5   908 0001:000187DB   909 0001:000187E2

Line numbers for SQLiteTable3(System.Generics.Collections.pas) segment .text

   935 0001:000187EC   936 0001:000187F5   937 0001:000187FA   938 0001:00018804
   940 0001:0001880C   941 0001:0001881B   942 0001:00018833   943 0001:00018842
   944 0001:00018845   938 0001:00018848   946 0001:00018850

Line numbers for SQLiteTable3(System.Generics.Collections.pas) segment .text

   949 0001:00018854   950 0001:0001885D   951 0001:0001888A

Line numbers for SQLiteTable3(System.Generics.Collections.pas) segment .text

   954 0001:00018890   955 0001:0001889C   956 0001:000188C6

Line numbers for SQLiteTable3(System.Generics.Collections.pas) segment .text

   717 0001:000188CC   718 0001:000188DB   719 0001:00018913

Line numbers for SQLiteTable3(System.Generics.Collections.pas) segment .text

   723 0001:0001891C   724 0001:0001892B   725 0001:00018960

Line numbers for SQLiteTable3(System.Generics.Collections.pas) segment .text

   968 0001:0001896C   969 0001:00018973   970 0001:00018981

Line numbers for SQLiteTable3(System.Generics.Collections.pas) segment .text

   961 0001:00018984   962 0001:00018990   963 0001:000189AD   964 0001:000189C3
   963 0001:000189DC   965 0001:000189E1

Line numbers for SQLiteTable3(System.Generics.Collections.pas) segment .text

   973 0001:000189E8   974 0001:000189F1   975 0001:00018A03

Line numbers for SQLiteTable3(System.Generics.Collections.pas) segment .text

   997 0001:00018A0C   998 0001:00018A15   999 0001:00018A29

Line numbers for SQLiteTable3(System.Generics.Collections.pas) segment .text

   987 0001:00018A30   988 0001:00018A39   989 0001:00018A44

Line numbers for SQLiteTable3(System.Generics.Collections.pas) segment .text

   992 0001:00018A4C   993 0001:00018A55   994 0001:00018A60

Line numbers for SQLiteTable3(System.Generics.Collections.pas) segment .text

   980 0001:00018A68   981 0001:00018A83   982 0001:00018A8D   983 0001:00018A96
   984 0001:00018AA0

Line numbers for SQLiteTable3(System.Generics.Collections.pas) segment .text

  1002 0001:00018AC0  1003 0001:00018AC9  1004 0001:00018ADA  1005 0001:00018AE0
  1006 0001:00018AE6  1007 0001:00018AF9

Line numbers for SQLiteTable3(System.Generics.Collections.pas) segment .text

  1880 0001:00018B00  1881 0001:00018B0F  1882 0001:00018B1D  1883 0001:00018B2C
  1884 0001:00018B34

Line numbers for SQLiteTable3(System.Generics.Collections.pas) segment .text

  1862 0001:00018B38  1863 0001:00018B53  1864 0001:00018B5D  1865 0001:00018B66

Line numbers for SQLiteTable3(System.Generics.Collections.pas) segment .text

  1868 0001:00018B88  1869 0001:00018BA3  1870 0001:00018BB0  1871 0001:00018BB9

Line numbers for SQLiteTable3(System.Generics.Collections.pas) segment .text

  1874 0001:00018BDC  1875 0001:00018BF7  1876 0001:00018C04  1877 0001:00018C0D

Line numbers for SQLiteTable3(System.Generics.Collections.pas) segment .text

  2076 0001:00018C30  2078 0001:00018C3F  2079 0001:00018C59  2080 0001:00018C5E
  2082 0001:00018C83  2083 0001:00018C91  2080 0001:00018C94  2084 0001:00018CAD
  2085 0001:00018CCA

Line numbers for SQLiteTable3(System.Generics.Collections.pas) segment .text

  2054 0001:00018CD0  2055 0001:00018CD9  2056 0001:00018CE3

Line numbers for SQLiteTable3(System.Generics.Collections.pas) segment .text

  2062 0001:00018CEC  2063 0001:00018CF8  2064 0001:00018D07  2065 0001:00018D15
  2066 0001:00018D3A  2065 0001:00018D45  2066 0001:00018D5E  2067 0001:00018D7B
  2069 0001:00018D93  2071 0001:00018DA3

Line numbers for SQLiteTable3(System.Generics.Collections.pas) segment .text

  2047 0001:00018DA8  2048 0001:00018DB1  2049 0001:00018DBC

Line numbers for SQLiteTable3(System.Generics.Collections.pas) segment .text

   588 0001:00018DC4   589 0001:00018DCD   590 0001:00018DDB

Line numbers for SQLiteTable3(System.Generics.Collections.pas) segment .text

   593 0001:00018DE4   594 0001:00018DF0   595 0001:00018DFB   596 0001:00018E06
   597 0001:00018E23

Line numbers for SQLiteTable3(System.Generics.Collections.pas) segment .text

   600 0001:00018E28   601 0001:00018E34   602 0001:00018E3A   603 0001:00018E51
   604 0001:00018E5E   605 0001:00018E69   606 0001:00018E74   607 0001:00018E88
   608 0001:00018E91

Line numbers for SQLiteTable3(System.Generics.Collections.pas) segment .text

   611 0001:00018E98   612 0001:00018EA4   613 0001:00018EB5   614 0001:00018ECC
   615 0001:00018EDB

Line numbers for SQLiteTable3(System.Generics.Collections.pas) segment .text

   620 0001:00018EE4   621 0001:00018EF4   622 0001:00018F05   624 0001:00018F1C
   625 0001:00018F2B   627 0001:00018F3A   628 0001:00018F47   629 0001:00018F54

Line numbers for SQLiteTable3(System.Generics.Collections.pas) segment .text

   634 0001:00018F5C   635 0001:00018F68   636 0001:00018F76   637 0001:00018F7C
   640 0001:00018F84   641 0001:00018F8C   642 0001:00018F92   643 0001:00018F97
   644 0001:00018F9F   645 0001:00018FAA

Line numbers for SQLiteTable3(System.Generics.Collections.pas) segment .text

   648 0001:00018FB0   649 0001:00018FBC   650 0001:00018FCC   651 0001:00018FD9
   652 0001:00018FDF   653 0001:00018FE4

Line numbers for SQLiteTable3(System.Generics.Collections.pas) segment .text

   826 0001:00018FE8   827 0001:00018FF8   828 0001:00019009   829 0001:00019020
   830 0001:0001902F   831 0001:0001903D   832 0001:00019043   834 0001:0001904E
   835 0001:0001907A   837 0001:00019095   838 0001:000190A3

Line numbers for SQLiteTable3(System.Generics.Collections.pas) segment .text

   688 0001:000190A8   689 0001:000190B1   690 0001:000190BC

Line numbers for SQLiteTable3(System.Generics.Collections.pas) segment .text

   656 0001:000190C4   657 0001:000190D4   658 0001:000190DE   659 0001:000190F1

Line numbers for SQLiteTable3(System.Generics.Collections.pas) segment .text

   662 0001:000190F8   663 0001:00019123   664 0001:0001913D

Line numbers for SQLiteTable3(System.Generics.Collections.pas) segment .text

   667 0001:0001917C   668 0001:000191AB   669 0001:000191B5   670 0001:000191C3
   671 0001:000191CC   672 0001:000191E7

Line numbers for SQLiteTable3(System.Generics.Collections.pas) segment .text

   675 0001:00019224   676 0001:00019253   677 0001:0001925D   678 0001:00019278
   679 0001:00019285

Line numbers for SQLiteTable3(System.Generics.Collections.pas) segment .text

   682 0001:000192C4   683 0001:000192D5   684 0001:000192DF   685 0001:000192ED

Line numbers for SQLiteTable3(System.Generics.Collections.pas) segment .text

   693 0001:00019300   694 0001:0001930D   695 0001:0001931C   696 0001:00019325
   697 0001:00019337   698 0001:0001933D   699 0001:0001934A

Line numbers for SQLiteTable3(System.Generics.Collections.pas) segment .text

   702 0001:00019354   703 0001:00019363   704 0001:00019378

Line numbers for SQLiteTable3(System.Generics.Collections.pas) segment .text

   707 0001:0001937C   708 0001:00019388   709 0001:00019399

Line numbers for SQLiteTable3(System.Generics.Collections.pas) segment .text

   712 0001:000193A0   713 0001:000193AC   714 0001:000193BD

Line numbers for SQLiteTable3(System.Generics.Collections.pas) segment .text

   728 0001:000193C4   729 0001:000193D4   730 0001:000193E5   732 0001:000193FC
   733 0001:0001940B   735 0001:00019416   736 0001:00019442   738 0001:0001945A
   739 0001:00019469   740 0001:0001946F   741 0001:0001947C

Line numbers for SQLiteTable3(System.Generics.Collections.pas) segment .text

   746 0001:00019484   747 0001:00019494   748 0001:000194A5   750 0001:000194BC
   751 0001:000194CE   753 0001:000194D9   754 0001:00019506   757 0001:00019520
   758 0001:00019534   757 0001:0001954F   760 0001:00019554   762 0001:0001955E
   763 0001:00019572   762 0001:00019588   764 0001:0001958D

Line numbers for SQLiteTable3(System.Generics.Collections.pas) segment .text

   769 0001:00019594   770 0001:000195B7   772 0001:000195CF   773 0001:000195DD
   770 0001:000195E0   774 0001:000195EC   775 0001:000195F4

Line numbers for SQLiteTable3(System.Generics.Collections.pas) segment .text

   780 0001:00019618   781 0001:00019627   783 0001:0001964C   784 0001:0001965A
   781 0001:0001965D   785 0001:00019676   786 0001:00019693

Line numbers for SQLiteTable3(System.Generics.Collections.pas) segment .text

   817 0001:00019698   818 0001:000196A4   819 0001:000196B2   820 0001:000196B8
   821 0001:000196C3

Line numbers for SQLiteTable3(System.Generics.Collections.pas) segment .text

   841 0001:000196CC   842 0001:000196D8   843 0001:000196E5

Line numbers for SQLiteTable3(System.Generics.Collections.pas) segment .text

   849 0001:000196EC   850 0001:0001970F   852 0001:00019733   853 0001:0001974A
   856 0001:00019754   857 0001:0001976E   859 0001:00019788   860 0001:00019799
   862 0001:0001979F   863 0001:000197C5   867 0001:000197E6   869 0001:000197FF
   871 0001:00019808   872 0001:00019820   871 0001:00019836   873 0001:0001983B

Line numbers for SQLiteTable3(System.Generics.Collections.pas) segment .text

   800 0001:00019864   801 0001:00019870   802 0001:0001987E   803 0001:00019884
   806 0001:0001988B   807 0001:0001989A   809 0001:000198A7

Line numbers for SQLiteTable3(System.Generics.Collections.pas) segment .text

   791 0001:000198B0   792 0001:000198BF   793 0001:000198CE   794 0001:000198E6
   795 0001:000198F5

Line numbers for SQLiteTable3(System.Generics.Collections.pas) segment .text

   914 0001:000198FC   915 0001:0001990C   917 0001:00019918   918 0001:00019929
   920 0001:00019940   921 0001:0001994F   922 0001:0001995D   923 0001:00019965
   925 0001:0001998E   927 0001:000199B7   928 0001:000199CF   929 0001:000199DE

Line numbers for SQLiteTable3(System.Generics.Collections.pas) segment .text

   812 0001:000199E4   813 0001:000199ED   814 0001:000199FA

Line numbers for SQLiteTable3(System.Generics.Collections.pas) segment .text

   897 0001:00019A04   898 0001:00019A0D   899 0001:00019A1F

Line numbers for SQLiteTable3(System.Generics.Collections.pas) segment .text

   876 0001:00019A28   877 0001:00019A2F   878 0001:00019A39   879 0001:00019A43

Line numbers for SQLiteTable3(System.Generics.Collections.pas) segment .text

   882 0001:00019A48   883 0001:00019A54   884 0001:00019A65

Line numbers for SQLiteTable3(System.Generics.Collections.pas) segment .text

   889 0001:00019A6C   890 0001:00019A79   891 0001:00019A8F   892 0001:00019AAD
   890 0001:00019AB8   893 0001:00019ABD   894 0001:00019AC4

Line numbers for SQLiteTable3(System.Generics.Collections.pas) segment .text

   904 0001:00019ACC   905 0001:00019AD9   906 0001:00019AE8   907 0001:00019B06
   905 0001:00019B11   908 0001:00019B17   909 0001:00019B1E

Line numbers for SQLiteTable3(System.Generics.Collections.pas) segment .text

   935 0001:00019B28   936 0001:00019B31   937 0001:00019B36   938 0001:00019B40
   940 0001:00019B48   941 0001:00019B57   942 0001:00019B6F   943 0001:00019B7E
   944 0001:00019B81   938 0001:00019B84   946 0001:00019B8C

Line numbers for SQLiteTable3(System.Generics.Collections.pas) segment .text

   949 0001:00019B90   950 0001:00019B99   951 0001:00019BC6

Line numbers for SQLiteTable3(System.Generics.Collections.pas) segment .text

   954 0001:00019BCC   955 0001:00019BD8   956 0001:00019C02

Line numbers for SQLiteTable3(System.Generics.Collections.pas) segment .text

   717 0001:00019C08   718 0001:00019C17   719 0001:00019C4F

Line numbers for SQLiteTable3(System.Generics.Collections.pas) segment .text

   723 0001:00019C58   724 0001:00019C67   725 0001:00019C9C

Line numbers for SQLiteTable3(System.Generics.Collections.pas) segment .text

   968 0001:00019CA8   969 0001:00019CAF   970 0001:00019CBD

Line numbers for SQLiteTable3(System.Generics.Collections.pas) segment .text

   961 0001:00019CC0   962 0001:00019CCC   963 0001:00019CE9   964 0001:00019CFF
   963 0001:00019D18   965 0001:00019D1D

Line numbers for SQLiteTable3(System.Generics.Collections.pas) segment .text

   973 0001:00019D24   974 0001:00019D2D   975 0001:00019D3F

Line numbers for SQLiteTable3(System.Generics.Collections.pas) segment .text

   997 0001:00019D48   998 0001:00019D51   999 0001:00019D65

Line numbers for SQLiteTable3(System.Generics.Collections.pas) segment .text

   987 0001:00019D6C   988 0001:00019D75   989 0001:00019D80

Line numbers for SQLiteTable3(System.Generics.Collections.pas) segment .text

   992 0001:00019D88   993 0001:00019D91   994 0001:00019D9C

Line numbers for SQLiteTable3(System.Generics.Collections.pas) segment .text

   980 0001:00019DA4   981 0001:00019DBF   982 0001:00019DC9   983 0001:00019DD2
   984 0001:00019DDC

Line numbers for SQLiteTable3(System.Generics.Collections.pas) segment .text

  1002 0001:00019DFC  1003 0001:00019E05  1004 0001:00019E16  1005 0001:00019E1C
  1006 0001:00019E22  1007 0001:00019E35

Line numbers for SQLiteTable3(System.Generics.Collections.pas) segment .text

  1880 0001:00019E3C  1881 0001:00019E4B  1882 0001:00019E59  1883 0001:00019E68
  1884 0001:00019E70

Line numbers for SQLiteTable3(System.Generics.Collections.pas) segment .text

  1862 0001:00019E74  1863 0001:00019E8F  1864 0001:00019E99  1865 0001:00019EA2

Line numbers for SQLiteTable3(System.Generics.Collections.pas) segment .text

  1868 0001:00019EC4  1869 0001:00019EDF  1870 0001:00019EEC  1871 0001:00019EF5

Line numbers for SQLiteTable3(System.Generics.Collections.pas) segment .text

  1874 0001:00019F18  1875 0001:00019F33  1876 0001:00019F40  1877 0001:00019F49

Line numbers for SQLiteTable3(System.Generics.Defaults.pas) segment .text

  1641 0001:00019F6C  1642 0001:00019F78  1643 0001:00019F94

Line numbers for SQLiteTable3(System.Generics.Defaults.pas) segment .text

  1646 0001:00019F98  1647 0001:00019FA7  1648 0001:00019FC7

Line numbers for SQLiteTable3(System.Generics.Collections.pas) segment .text

   575 0001:00019FCC   576 0001:00019FDB   579 0001:0001A00D   580 0001:0001A024
   582 0001:0001A02A   583 0001:0001A048

Line numbers for SQLiteTable3(System.Generics.Collections.pas) segment .text

   484 0001:0001A050   485 0001:0001A060   488 0001:0001A092   489 0001:0001A0A9
   491 0001:0001A0AF   492 0001:0001A0B7   495 0001:0001A0BD   496 0001:0001A0C1
   497 0001:0001A0C7   498 0001:0001A0D1   500 0001:0001A0D9   501 0001:0001A0E7
   502 0001:0001A0FE   503 0001:0001A104   506 0001:0001A10D   507 0001:0001A114
   508 0001:0001A11A   498 0001:0001A11E   511 0001:0001A126   512 0001:0001A12E

Line numbers for SQLiteTable3(System.Generics.Collections.pas) segment .text

   588 0001:0001A138   589 0001:0001A141   590 0001:0001A14F

Line numbers for SQLiteTable3(System.Generics.Collections.pas) segment .text

   593 0001:0001A158   594 0001:0001A164   595 0001:0001A16F   596 0001:0001A17A
   597 0001:0001A197

Line numbers for SQLiteTable3(System.Generics.Collections.pas) segment .text

   600 0001:0001A19C   601 0001:0001A1A8   602 0001:0001A1AE   603 0001:0001A1C5
   604 0001:0001A1D2   605 0001:0001A1DD   606 0001:0001A1E8   607 0001:0001A1FC
   608 0001:0001A205

Line numbers for SQLiteTable3(System.Generics.Collections.pas) segment .text

   611 0001:0001A20C   612 0001:0001A21B   613 0001:0001A22C   614 0001:0001A243
   615 0001:0001A25D

Line numbers for SQLiteTable3(System.Generics.Collections.pas) segment .text

   620 0001:0001A264   621 0001:0001A290   622 0001:0001A2A1   624 0001:0001A2B8
   625 0001:0001A2D2   627 0001:0001A2EC   628 0001:0001A2F9   629 0001:0001A306

Line numbers for SQLiteTable3(System.Generics.Collections.pas) segment .text

   634 0001:0001A330   635 0001:0001A33C   636 0001:0001A34A   637 0001:0001A350
   640 0001:0001A358   641 0001:0001A360   642 0001:0001A366   643 0001:0001A36B
   644 0001:0001A373   645 0001:0001A37E

Line numbers for SQLiteTable3(System.Generics.Collections.pas) segment .text

   648 0001:0001A384   649 0001:0001A390   650 0001:0001A3A0   651 0001:0001A3AD
   652 0001:0001A3B3   653 0001:0001A3B8

Line numbers for SQLiteTable3(System.Generics.Collections.pas) segment .text

   826 0001:0001A3BC   827 0001:0001A3E8   828 0001:0001A3F9   829 0001:0001A410
   830 0001:0001A42A   831 0001:0001A448   832 0001:0001A44E   834 0001:0001A459
   835 0001:0001A485   837 0001:0001A4A0   838 0001:0001A4AE

Line numbers for SQLiteTable3(System.Generics.Collections.pas) segment .text

   688 0001:0001A4D8   689 0001:0001A4E1   690 0001:0001A4EC

Line numbers for SQLiteTable3(System.Generics.Collections.pas) segment .text

   656 0001:0001A4F4   657 0001:0001A504   658 0001:0001A50E   659 0001:0001A521

Line numbers for SQLiteTable3(System.Generics.Collections.pas) segment .text

   662 0001:0001A528   663 0001:0001A553   664 0001:0001A56D

Line numbers for SQLiteTable3(System.Generics.Collections.pas) segment .text

   667 0001:0001A5AC   668 0001:0001A5DB   669 0001:0001A5E5   670 0001:0001A5F3
   671 0001:0001A5FC   672 0001:0001A617

Line numbers for SQLiteTable3(System.Generics.Collections.pas) segment .text

   675 0001:0001A654   676 0001:0001A683   677 0001:0001A68D   678 0001:0001A6A8
   679 0001:0001A6B5

Line numbers for SQLiteTable3(System.Generics.Collections.pas) segment .text

   682 0001:0001A6F4   683 0001:0001A705   684 0001:0001A70F   685 0001:0001A71D

Line numbers for SQLiteTable3(System.Generics.Collections.pas) segment .text

   693 0001:0001A730   694 0001:0001A73D   695 0001:0001A74C   696 0001:0001A755
   697 0001:0001A772   698 0001:0001A778   699 0001:0001A785

Line numbers for SQLiteTable3(System.Generics.Collections.pas) segment .text

   702 0001:0001A790   703 0001:0001A79F   704 0001:0001A7B4

Line numbers for SQLiteTable3(System.Generics.Collections.pas) segment .text

   707 0001:0001A7B8   708 0001:0001A7C4   709 0001:0001A7D5

Line numbers for SQLiteTable3(System.Generics.Collections.pas) segment .text

   712 0001:0001A7DC   713 0001:0001A7E8   714 0001:0001A7F9

Line numbers for SQLiteTable3(System.Generics.Collections.pas) segment .text

   728 0001:0001A800   729 0001:0001A810   730 0001:0001A821   732 0001:0001A838
   733 0001:0001A847   735 0001:0001A852   736 0001:0001A87E   738 0001:0001A896
   739 0001:0001A8B0   740 0001:0001A8B6   741 0001:0001A8C3

Line numbers for SQLiteTable3(System.Generics.Collections.pas) segment .text

   746 0001:0001A8C8   747 0001:0001A8D8   748 0001:0001A8E9   750 0001:0001A900
   751 0001:0001A912   753 0001:0001A91D   754 0001:0001A94A   757 0001:0001A964
   758 0001:0001A978   757 0001:0001A99E   760 0001:0001A9A3   762 0001:0001A9AD
   763 0001:0001A9C1   762 0001:0001A9D7   764 0001:0001A9DC

Line numbers for SQLiteTable3(System.Generics.Collections.pas) segment .text

   769 0001:0001A9E4   770 0001:0001AA15   772 0001:0001AA2D   773 0001:0001AA3B
   770 0001:0001AA3E   774 0001:0001AA4A   775 0001:0001AA52

Line numbers for SQLiteTable3(System.Generics.Collections.pas) segment .text

   780 0001:0001AA84   781 0001:0001AAAF   783 0001:0001AAD4   784 0001:0001AAE2
   781 0001:0001AAE5   785 0001:0001AAFE   786 0001:0001AB1B

Line numbers for SQLiteTable3(System.Generics.Collections.pas) segment .text

   817 0001:0001AB44   818 0001:0001AB50   819 0001:0001AB5E   820 0001:0001AB64
   821 0001:0001AB6F

Line numbers for SQLiteTable3(System.Generics.Collections.pas) segment .text

   841 0001:0001AB78   842 0001:0001AB84   843 0001:0001AB91

Line numbers for SQLiteTable3(System.Generics.Collections.pas) segment .text

   849 0001:0001AB98   850 0001:0001ABBB   852 0001:0001ABDF   853 0001:0001ABF6
   856 0001:0001AC00   857 0001:0001AC1A   859 0001:0001AC34   860 0001:0001AC45
   862 0001:0001AC4B   863 0001:0001AC71   867 0001:0001AC92   869 0001:0001ACAB
   871 0001:0001ACB4   872 0001:0001ACCC   871 0001:0001ACE2   873 0001:0001ACE7

Line numbers for SQLiteTable3(System.Generics.Collections.pas) segment .text

   800 0001:0001AD10   801 0001:0001AD1F   802 0001:0001AD2D   803 0001:0001AD33
   806 0001:0001AD4A   807 0001:0001AD64   809 0001:0001AD71

Line numbers for SQLiteTable3(System.Generics.Collections.pas) segment .text

   791 0001:0001AD78   792 0001:0001ADA3   793 0001:0001ADBD   794 0001:0001ADE0
   795 0001:0001ADFA

Line numbers for SQLiteTable3(System.Generics.Collections.pas) segment .text

   914 0001:0001AE24   915 0001:0001AE50   917 0001:0001AE5C   918 0001:0001AE6D
   920 0001:0001AE84   921 0001:0001AE9E   922 0001:0001AEBC   923 0001:0001AEC4
   925 0001:0001AEED   927 0001:0001AF16   928 0001:0001AF2E   929 0001:0001AF48

Line numbers for SQLiteTable3(System.Generics.Collections.pas) segment .text

   812 0001:0001AF70   813 0001:0001AF7C   814 0001:0001AF89

Line numbers for SQLiteTable3(System.Generics.Collections.pas) segment .text

   897 0001:0001AF90   898 0001:0001AF9C   899 0001:0001AFAE

Line numbers for SQLiteTable3(System.Generics.Collections.pas) segment .text

   876 0001:0001AFB4   877 0001:0001AFBB   878 0001:0001AFC5   879 0001:0001AFCF

Line numbers for SQLiteTable3(System.Generics.Collections.pas) segment .text

   882 0001:0001AFD4   883 0001:0001AFE0   884 0001:0001AFF1

Line numbers for SQLiteTable3(System.Generics.Collections.pas) segment .text

   889 0001:0001AFF8   890 0001:0001B005   891 0001:0001B01B   892 0001:0001B039
   890 0001:0001B044   893 0001:0001B049   894 0001:0001B050

Line numbers for SQLiteTable3(System.Generics.Collections.pas) segment .text

   904 0001:0001B058   905 0001:0001B065   906 0001:0001B074   907 0001:0001B092
   905 0001:0001B09D   908 0001:0001B0A3   909 0001:0001B0AA

Line numbers for SQLiteTable3(System.Generics.Collections.pas) segment .text

   935 0001:0001B0B4   936 0001:0001B0D9   937 0001:0001B0DE   938 0001:0001B0E8
   940 0001:0001B0F0   941 0001:0001B10A   942 0001:0001B12D   943 0001:0001B147
   944 0001:0001B14A   938 0001:0001B14D   946 0001:0001B155

Line numbers for SQLiteTable3(System.Generics.Collections.pas) segment .text

   949 0001:0001B17C   950 0001:0001B185   951 0001:0001B1B2

Line numbers for SQLiteTable3(System.Generics.Collections.pas) segment .text

   954 0001:0001B1B8   955 0001:0001B1C4   956 0001:0001B1EE

Line numbers for SQLiteTable3(System.Generics.Collections.pas) segment .text

   717 0001:0001B1F4   718 0001:0001B203   719 0001:0001B23B

Line numbers for SQLiteTable3(System.Generics.Collections.pas) segment .text

   723 0001:0001B244   724 0001:0001B253   725 0001:0001B288

Line numbers for SQLiteTable3(System.Generics.Collections.pas) segment .text

   968 0001:0001B294   969 0001:0001B29B   970 0001:0001B2A9

Line numbers for SQLiteTable3(System.Generics.Collections.pas) segment .text

   961 0001:0001B2AC   962 0001:0001B2CE   963 0001:0001B2EB   964 0001:0001B301
   963 0001:0001B32B   965 0001:0001B330

Line numbers for SQLiteTable3(System.Generics.Collections.pas) segment .text

   973 0001:0001B358   974 0001:0001B361   975 0001:0001B373

Line numbers for SQLiteTable3(System.Generics.Collections.pas) segment .text

   997 0001:0001B37C   998 0001:0001B388   999 0001:0001B39C

Line numbers for SQLiteTable3(System.Generics.Collections.pas) segment .text

   987 0001:0001B3A0   988 0001:0001B3AC   989 0001:0001B3B7

Line numbers for SQLiteTable3(System.Generics.Collections.pas) segment .text

   992 0001:0001B3BC   993 0001:0001B3C5   994 0001:0001B3D0

Line numbers for SQLiteTable3(System.Generics.Collections.pas) segment .text

   980 0001:0001B3D8   981 0001:0001B3F3   982 0001:0001B3FD   983 0001:0001B406
   984 0001:0001B410

Line numbers for SQLiteTable3(System.Generics.Collections.pas) segment .text

  1002 0001:0001B430  1003 0001:0001B439  1004 0001:0001B44A  1005 0001:0001B450
  1006 0001:0001B456  1007 0001:0001B469

Line numbers for SQLiteTable3(System.Generics.Defaults.pas) segment .text

  1653 0001:0001B470  1654 0001:0001B477  1655 0001:0001B493

Line numbers for SQLiteTable3(System.Generics.Defaults.pas) segment .text

  1653 0001:0001B498  1654 0001:0001B49F  1655 0001:0001B4BB

Line numbers for SQLiteTable3(System.Generics.Collections.pas) segment .text

   588 0001:0001B4C0   589 0001:0001B4C9   590 0001:0001B4D7

Line numbers for SQLiteTable3(System.Generics.Collections.pas) segment .text

   593 0001:0001B4E0   594 0001:0001B4EC   595 0001:0001B4F7   596 0001:0001B502
   597 0001:0001B51F

Line numbers for SQLiteTable3(System.Generics.Collections.pas) segment .text

   600 0001:0001B524   601 0001:0001B530   602 0001:0001B536   603 0001:0001B54D
   604 0001:0001B55A   605 0001:0001B565   606 0001:0001B570   607 0001:0001B584
   608 0001:0001B58D

Line numbers for SQLiteTable3(System.Generics.Collections.pas) segment .text

   611 0001:0001B594   612 0001:0001B5A3   613 0001:0001B5B4   614 0001:0001B5CB
   615 0001:0001B5DF

Line numbers for SQLiteTable3(System.Generics.Collections.pas) segment .text

   620 0001:0001B5E4   621 0001:0001B607   622 0001:0001B618   624 0001:0001B62F
   625 0001:0001B643   627 0001:0001B657   628 0001:0001B664   629 0001:0001B671

Line numbers for SQLiteTable3(System.Generics.Collections.pas) segment .text

   634 0001:0001B694   635 0001:0001B6A0   636 0001:0001B6AE   637 0001:0001B6B4
   640 0001:0001B6BC   641 0001:0001B6C4   642 0001:0001B6CA   643 0001:0001B6CF
   644 0001:0001B6D7   645 0001:0001B6E2

Line numbers for SQLiteTable3(System.Generics.Collections.pas) segment .text

   648 0001:0001B6E8   649 0001:0001B6F4   650 0001:0001B704   651 0001:0001B711
   652 0001:0001B717   653 0001:0001B71C

Line numbers for SQLiteTable3(System.Generics.Collections.pas) segment .text

   826 0001:0001B720   827 0001:0001B743   828 0001:0001B754   829 0001:0001B76B
   830 0001:0001B77F   831 0001:0001B790   832 0001:0001B796   834 0001:0001B7A1
   835 0001:0001B7CD   837 0001:0001B7E8   838 0001:0001B7F6

Line numbers for SQLiteTable3(System.Generics.Collections.pas) segment .text

   688 0001:0001B818   689 0001:0001B821   690 0001:0001B82C

Line numbers for SQLiteTable3(System.Generics.Collections.pas) segment .text

   656 0001:0001B834   657 0001:0001B844   658 0001:0001B84E   659 0001:0001B861

Line numbers for SQLiteTable3(System.Generics.Collections.pas) segment .text

   662 0001:0001B868   663 0001:0001B893   664 0001:0001B8AD

Line numbers for SQLiteTable3(System.Generics.Collections.pas) segment .text

   667 0001:0001B8EC   668 0001:0001B91B   669 0001:0001B925   670 0001:0001B933
   671 0001:0001B93C   672 0001:0001B957

Line numbers for SQLiteTable3(System.Generics.Collections.pas) segment .text

   675 0001:0001B994   676 0001:0001B9C3   677 0001:0001B9CD   678 0001:0001B9E8
   679 0001:0001B9F5

Line numbers for SQLiteTable3(System.Generics.Collections.pas) segment .text

   682 0001:0001BA34   683 0001:0001BA45   684 0001:0001BA4F   685 0001:0001BA5D

Line numbers for SQLiteTable3(System.Generics.Collections.pas) segment .text

   693 0001:0001BA70   694 0001:0001BA7D   695 0001:0001BA8C   696 0001:0001BA95
   697 0001:0001BAAC   698 0001:0001BAB2   699 0001:0001BABF

Line numbers for SQLiteTable3(System.Generics.Collections.pas) segment .text

   702 0001:0001BAC8   703 0001:0001BAD7   704 0001:0001BAEC

Line numbers for SQLiteTable3(System.Generics.Collections.pas) segment .text

   707 0001:0001BAF0   708 0001:0001BAFC   709 0001:0001BB0D

Line numbers for SQLiteTable3(System.Generics.Collections.pas) segment .text

   712 0001:0001BB14   713 0001:0001BB20   714 0001:0001BB31

Line numbers for SQLiteTable3(System.Generics.Collections.pas) segment .text

   728 0001:0001BB38   729 0001:0001BB48   730 0001:0001BB59   732 0001:0001BB70
   733 0001:0001BB7F   735 0001:0001BB8A   736 0001:0001BBB6   738 0001:0001BBCE
   739 0001:0001BBE2   740 0001:0001BBE8   741 0001:0001BBF5

Line numbers for SQLiteTable3(System.Generics.Collections.pas) segment .text

   746 0001:0001BBFC   747 0001:0001BC0C   748 0001:0001BC1D   750 0001:0001BC34
   751 0001:0001BC46   753 0001:0001BC51   754 0001:0001BC7E   757 0001:0001BC98
   758 0001:0001BCAC   757 0001:0001BCCC   760 0001:0001BCD1   762 0001:0001BCDB
   763 0001:0001BCEF   762 0001:0001BD05   764 0001:0001BD0A

Line numbers for SQLiteTable3(System.Generics.Collections.pas) segment .text

   769 0001:0001BD14   770 0001:0001BD3A   772 0001:0001BD52   773 0001:0001BD60
   770 0001:0001BD63   774 0001:0001BD6F   775 0001:0001BD77

Line numbers for SQLiteTable3(System.Generics.Collections.pas) segment .text

   780 0001:0001BDA4   781 0001:0001BDC7   783 0001:0001BDEC   784 0001:0001BDFA
   781 0001:0001BDFD   785 0001:0001BE16   786 0001:0001BE33

Line numbers for SQLiteTable3(System.Generics.Collections.pas) segment .text

   817 0001:0001BE58   818 0001:0001BE64   819 0001:0001BE72   820 0001:0001BE78
   821 0001:0001BE83

Line numbers for SQLiteTable3(System.Generics.Collections.pas) segment .text

   841 0001:0001BE8C   842 0001:0001BE98   843 0001:0001BEA5

Line numbers for SQLiteTable3(System.Generics.Collections.pas) segment .text

   849 0001:0001BEAC   850 0001:0001BECF   852 0001:0001BEF3   853 0001:0001BF0A
   856 0001:0001BF14   857 0001:0001BF2E   859 0001:0001BF48   860 0001:0001BF59
   862 0001:0001BF5F   863 0001:0001BF85   867 0001:0001BFA6   869 0001:0001BFBF
   871 0001:0001BFC8   872 0001:0001BFE0   871 0001:0001BFF6   873 0001:0001BFFB

Line numbers for SQLiteTable3(System.Generics.Collections.pas) segment .text

   800 0001:0001C024   801 0001:0001C033   802 0001:0001C041   803 0001:0001C047
   806 0001:0001C051   807 0001:0001C065   809 0001:0001C072

Line numbers for SQLiteTable3(System.Generics.Collections.pas) segment .text

   791 0001:0001C078   792 0001:0001C09B   793 0001:0001C0AF   794 0001:0001C0CC
   795 0001:0001C0E0

Line numbers for SQLiteTable3(System.Generics.Collections.pas) segment .text

   914 0001:0001C104   915 0001:0001C127   917 0001:0001C133   918 0001:0001C144
   920 0001:0001C15B   921 0001:0001C16F   922 0001:0001C180   923 0001:0001C188
   925 0001:0001C1B1   927 0001:0001C1DA   928 0001:0001C1F2   929 0001:0001C206

Line numbers for SQLiteTable3(System.Generics.Collections.pas) segment .text

   812 0001:0001C228   813 0001:0001C234   814 0001:0001C241

Line numbers for SQLiteTable3(System.Generics.Collections.pas) segment .text

   897 0001:0001C248   898 0001:0001C254   899 0001:0001C266

Line numbers for SQLiteTable3(System.Generics.Collections.pas) segment .text

   876 0001:0001C26C   877 0001:0001C273   878 0001:0001C27D   879 0001:0001C287

Line numbers for SQLiteTable3(System.Generics.Collections.pas) segment .text

   882 0001:0001C28C   883 0001:0001C298   884 0001:0001C2A9

Line numbers for SQLiteTable3(System.Generics.Collections.pas) segment .text

   889 0001:0001C2B0   890 0001:0001C2BD   891 0001:0001C2D3   892 0001:0001C2F1
   890 0001:0001C2FC   893 0001:0001C301   894 0001:0001C308

Line numbers for SQLiteTable3(System.Generics.Collections.pas) segment .text

   904 0001:0001C310   905 0001:0001C31D   906 0001:0001C32C   907 0001:0001C34A
   905 0001:0001C355   908 0001:0001C35B   909 0001:0001C362

Line numbers for SQLiteTable3(System.Generics.Collections.pas) segment .text

   935 0001:0001C36C   936 0001:0001C388   937 0001:0001C38D   938 0001:0001C397
   940 0001:0001C39F   941 0001:0001C3B3   942 0001:0001C3D0   943 0001:0001C3E4
   944 0001:0001C3E7   938 0001:0001C3EA   946 0001:0001C3F2

Line numbers for SQLiteTable3(System.Generics.Collections.pas) segment .text

   949 0001:0001C414   950 0001:0001C41D   951 0001:0001C44A

Line numbers for SQLiteTable3(System.Generics.Collections.pas) segment .text

   954 0001:0001C450   955 0001:0001C45C   956 0001:0001C486

Line numbers for SQLiteTable3(System.Generics.Collections.pas) segment .text

   717 0001:0001C48C   718 0001:0001C49B   719 0001:0001C4D3

Line numbers for SQLiteTable3(System.Generics.Collections.pas) segment .text

   723 0001:0001C4DC   724 0001:0001C4EB   725 0001:0001C520

Line numbers for SQLiteTable3(System.Generics.Collections.pas) segment .text

   968 0001:0001C52C   969 0001:0001C533   970 0001:0001C541

Line numbers for SQLiteTable3(System.Generics.Collections.pas) segment .text

   961 0001:0001C544   962 0001:0001C563   963 0001:0001C580   964 0001:0001C596
   963 0001:0001C5BA   965 0001:0001C5BF

Line numbers for SQLiteTable3(System.Generics.Collections.pas) segment .text

   973 0001:0001C5E0   974 0001:0001C5E9   975 0001:0001C5FB

Line numbers for SQLiteTable3(System.Generics.Collections.pas) segment .text

   997 0001:0001C604   998 0001:0001C610   999 0001:0001C624

Line numbers for SQLiteTable3(System.Generics.Collections.pas) segment .text

   987 0001:0001C628   988 0001:0001C634   989 0001:0001C63F

Line numbers for SQLiteTable3(System.Generics.Collections.pas) segment .text

   992 0001:0001C644   993 0001:0001C64D   994 0001:0001C658

Line numbers for SQLiteTable3(System.Generics.Collections.pas) segment .text

   980 0001:0001C660   981 0001:0001C67B   982 0001:0001C685   983 0001:0001C68E
   984 0001:0001C698

Line numbers for SQLiteTable3(System.Generics.Collections.pas) segment .text

  1002 0001:0001C6B8  1003 0001:0001C6C1  1004 0001:0001C6D2  1005 0001:0001C6D8
  1006 0001:0001C6DE  1007 0001:0001C6F1

Line numbers for SQLiteTable3(System.Generics.Collections.pas) segment .text

   588 0001:0001C6F8   589 0001:0001C701   590 0001:0001C70F

Line numbers for SQLiteTable3(System.Generics.Collections.pas) segment .text

   593 0001:0001C718   594 0001:0001C724   595 0001:0001C72F   596 0001:0001C73A
   597 0001:0001C757

Line numbers for SQLiteTable3(System.Generics.Collections.pas) segment .text

   600 0001:0001C75C   601 0001:0001C768   602 0001:0001C76E   603 0001:0001C785
   604 0001:0001C792   605 0001:0001C79D   606 0001:0001C7A8   607 0001:0001C7BC
   608 0001:0001C7C5

Line numbers for SQLiteTable3(System.Generics.Collections.pas) segment .text

   611 0001:0001C7CC   612 0001:0001C7D8   613 0001:0001C7E9   614 0001:0001C800
   615 0001:0001C80F

Line numbers for SQLiteTable3(System.Generics.Collections.pas) segment .text

   620 0001:0001C818   621 0001:0001C828   622 0001:0001C839   624 0001:0001C850
   625 0001:0001C85F   627 0001:0001C86E   628 0001:0001C87B   629 0001:0001C888

Line numbers for SQLiteTable3(System.Generics.Collections.pas) segment .text

   634 0001:0001C890   635 0001:0001C89C   636 0001:0001C8AA   637 0001:0001C8B0
   640 0001:0001C8B8   641 0001:0001C8C0   642 0001:0001C8C6   643 0001:0001C8CB
   644 0001:0001C8D3   645 0001:0001C8DE

Line numbers for SQLiteTable3(System.Generics.Collections.pas) segment .text

   648 0001:0001C8E4   649 0001:0001C8F0   650 0001:0001C900   651 0001:0001C90D
   652 0001:0001C913   653 0001:0001C918

Line numbers for SQLiteTable3(System.Generics.Collections.pas) segment .text

   826 0001:0001C91C   827 0001:0001C92C   828 0001:0001C93D   829 0001:0001C954
   830 0001:0001C963   831 0001:0001C971   832 0001:0001C977   834 0001:0001C982
   835 0001:0001C9AE   837 0001:0001C9C9   838 0001:0001C9D7

Line numbers for SQLiteTable3(System.Generics.Collections.pas) segment .text

   688 0001:0001C9DC   689 0001:0001C9E5   690 0001:0001C9F0

Line numbers for SQLiteTable3(System.Generics.Collections.pas) segment .text

   656 0001:0001C9F8   657 0001:0001CA08   658 0001:0001CA12   659 0001:0001CA25

Line numbers for SQLiteTable3(System.Generics.Defaults.pas) segment .text

    38 0001:000222DE

Line numbers for SQLiteTable3(System.Generics.Collections.pas) segment .text

   662 0001:0001CA2C   663 0001:0001CA57   664 0001:0001CA71

Line numbers for SQLiteTable3(System.Generics.Collections.pas) segment .text

   667 0001:0001CAB0   668 0001:0001CADF   669 0001:0001CAE9   670 0001:0001CAF7
   671 0001:0001CB00   672 0001:0001CB1B

Line numbers for SQLiteTable3(System.Generics.Collections.pas) segment .text

   675 0001:0001CB58   676 0001:0001CB87   677 0001:0001CB91   678 0001:0001CBAC
   679 0001:0001CBB9

Line numbers for SQLiteTable3(System.Generics.Collections.pas) segment .text

   682 0001:0001CBF8   683 0001:0001CC09   684 0001:0001CC13   685 0001:0001CC21

Line numbers for SQLiteTable3(System.Generics.Collections.pas) segment .text

   693 0001:0001CC34   694 0001:0001CC41   695 0001:0001CC50   696 0001:0001CC59
   697 0001:0001CC6B   698 0001:0001CC71   699 0001:0001CC7E

Line numbers for SQLiteTable3(System.Generics.Collections.pas) segment .text

   702 0001:0001CC88   703 0001:0001CC97   704 0001:0001CCAC

Line numbers for SQLiteTable3(System.Generics.Collections.pas) segment .text

   707 0001:0001CCB0   708 0001:0001CCBC   709 0001:0001CCCD

Line numbers for SQLiteTable3(System.Generics.Collections.pas) segment .text

   712 0001:0001CCD4   713 0001:0001CCE0   714 0001:0001CCF1

Line numbers for SQLiteTable3(System.Generics.Collections.pas) segment .text

   728 0001:0001CCF8   729 0001:0001CD08   730 0001:0001CD19   732 0001:0001CD30
   733 0001:0001CD3F   735 0001:0001CD4A   736 0001:0001CD76   738 0001:0001CD8E
   739 0001:0001CD9D   740 0001:0001CDA3   741 0001:0001CDB0

Line numbers for SQLiteTable3(System.Generics.Collections.pas) segment .text

   746 0001:0001CDB8   747 0001:0001CDC8   748 0001:0001CDD9   750 0001:0001CDF0
   751 0001:0001CE02   753 0001:0001CE0D   754 0001:0001CE3A   757 0001:0001CE54
   758 0001:0001CE68   757 0001:0001CE83   760 0001:0001CE88   762 0001:0001CE92
   763 0001:0001CEA6   762 0001:0001CEBC   764 0001:0001CEC1

Line numbers for SQLiteTable3(System.Generics.Collections.pas) segment .text

   769 0001:0001CEC8   770 0001:0001CEEB   772 0001:0001CF03   773 0001:0001CF11
   770 0001:0001CF14   774 0001:0001CF20   775 0001:0001CF28

Line numbers for SQLiteTable3(System.Generics.Collections.pas) segment .text

   780 0001:0001CF4C   781 0001:0001CF5B   783 0001:0001CF80   784 0001:0001CF8E
   781 0001:0001CF91   785 0001:0001CFAA   786 0001:0001CFC7

Line numbers for SQLiteTable3(System.Generics.Collections.pas) segment .text

   817 0001:0001CFCC   818 0001:0001CFD8   819 0001:0001CFE6   820 0001:0001CFEC
   821 0001:0001CFF7

Line numbers for SQLiteTable3(System.Generics.Collections.pas) segment .text

   841 0001:0001D000   842 0001:0001D00C   843 0001:0001D019

Line numbers for SQLiteTable3(System.Generics.Collections.pas) segment .text

   849 0001:0001D020   850 0001:0001D043   852 0001:0001D067   853 0001:0001D07E
   856 0001:0001D088   857 0001:0001D0A2   859 0001:0001D0BC   860 0001:0001D0CD
   862 0001:0001D0D3   863 0001:0001D0F9   867 0001:0001D11A   869 0001:0001D133
   871 0001:0001D13C   872 0001:0001D154   871 0001:0001D16A   873 0001:0001D16F

Line numbers for SQLiteTable3(System.Generics.Collections.pas) segment .text

   800 0001:0001D198   801 0001:0001D1A4   802 0001:0001D1B2   803 0001:0001D1B8
   806 0001:0001D1BF   807 0001:0001D1CE   809 0001:0001D1DB

Line numbers for SQLiteTable3(System.Generics.Collections.pas) segment .text

   791 0001:0001D1E4   792 0001:0001D1F3   793 0001:0001D202   794 0001:0001D21A
   795 0001:0001D229

Line numbers for SQLiteTable3(System.Generics.Collections.pas) segment .text

   914 0001:0001D230   915 0001:0001D240   917 0001:0001D24C   918 0001:0001D25D
   920 0001:0001D274   921 0001:0001D283   922 0001:0001D291   923 0001:0001D299
   925 0001:0001D2C2   927 0001:0001D2EB   928 0001:0001D303   929 0001:0001D312

Line numbers for SQLiteTable3(System.Generics.Collections.pas) segment .text

   812 0001:0001D318   813 0001:0001D321   814 0001:0001D32E

Line numbers for SQLiteTable3(System.Generics.Collections.pas) segment .text

   897 0001:0001D338   898 0001:0001D341   899 0001:0001D353

Line numbers for SQLiteTable3(System.Generics.Collections.pas) segment .text

   876 0001:0001D35C   877 0001:0001D363   878 0001:0001D36D   879 0001:0001D377

Line numbers for SQLiteTable3(System.Generics.Collections.pas) segment .text

   882 0001:0001D37C   883 0001:0001D388   884 0001:0001D399

Line numbers for SQLiteTable3(System.Generics.Collections.pas) segment .text

   889 0001:0001D3A0   890 0001:0001D3AD   891 0001:0001D3C3   892 0001:0001D3E1
   890 0001:0001D3EC   893 0001:0001D3F1   894 0001:0001D3F8

Line numbers for SQLiteTable3(System.Generics.Collections.pas) segment .text

   904 0001:0001D400   905 0001:0001D40D   906 0001:0001D41C   907 0001:0001D43A
   905 0001:0001D445   908 0001:0001D44B   909 0001:0001D452

Line numbers for SQLiteTable3(System.Generics.Collections.pas) segment .text

   935 0001:0001D45C   936 0001:0001D465   937 0001:0001D46A   938 0001:0001D474
   940 0001:0001D47C   941 0001:0001D48B   942 0001:0001D4A3   943 0001:0001D4B2
   944 0001:0001D4B5   938 0001:0001D4B8   946 0001:0001D4C0

Line numbers for SQLiteTable3(System.Generics.Collections.pas) segment .text

   949 0001:0001D4C4   950 0001:0001D4CD   951 0001:0001D4FA

Line numbers for SQLiteTable3(System.Generics.Collections.pas) segment .text

   954 0001:0001D500   955 0001:0001D50C   956 0001:0001D536

Line numbers for SQLiteTable3(System.Generics.Collections.pas) segment .text

   717 0001:0001D53C   718 0001:0001D54B   719 0001:0001D583

Line numbers for SQLiteTable3(System.Generics.Collections.pas) segment .text

   723 0001:0001D58C   724 0001:0001D59B   725 0001:0001D5D0

Line numbers for SQLiteTable3(System.Generics.Collections.pas) segment .text

   968 0001:0001D5DC   969 0001:0001D5E3   970 0001:0001D5F1

Line numbers for SQLiteTable3(System.Generics.Collections.pas) segment .text

   961 0001:0001D5F4   962 0001:0001D600   963 0001:0001D61D   964 0001:0001D633
   963 0001:0001D64C   965 0001:0001D651

Line numbers for SQLiteTable3(System.Generics.Collections.pas) segment .text

   973 0001:0001D658   974 0001:0001D661   975 0001:0001D673

Line numbers for SQLiteTable3(System.Generics.Collections.pas) segment .text

   997 0001:0001D67C   998 0001:0001D685   999 0001:0001D699

Line numbers for SQLiteTable3(System.Generics.Collections.pas) segment .text

   987 0001:0001D6A0   988 0001:0001D6A9   989 0001:0001D6B4

Line numbers for SQLiteTable3(System.Generics.Collections.pas) segment .text

   992 0001:0001D6BC   993 0001:0001D6C5   994 0001:0001D6D0

Line numbers for SQLiteTable3(System.Generics.Collections.pas) segment .text

   980 0001:0001D6D8   981 0001:0001D6F3   982 0001:0001D6FD   983 0001:0001D706
   984 0001:0001D710

Line numbers for SQLiteTable3(System.Generics.Collections.pas) segment .text

  1002 0001:0001D730  1003 0001:0001D739  1004 0001:0001D74A  1005 0001:0001D750
  1006 0001:0001D756  1007 0001:0001D769

Line numbers for SQLiteTable3(System.Generics.Defaults.pas) segment .text

  1641 0001:0001D770  1642 0001:0001D77C  1643 0001:0001D798

Line numbers for SQLiteTable3(System.Generics.Defaults.pas) segment .text

  1646 0001:0001D79C  1647 0001:0001D7AB  1648 0001:0001D7CB

Line numbers for SQLiteTable3(System.Generics.Collections.pas) segment .text

   575 0001:0001D7D0   576 0001:0001D7DF   579 0001:0001D811   580 0001:0001D828
   582 0001:0001D82E   583 0001:0001D84C

Line numbers for SQLiteTable3(System.Generics.Collections.pas) segment .text

   484 0001:0001D854   485 0001:0001D864   488 0001:0001D896   489 0001:0001D8AD
   491 0001:0001D8B3   492 0001:0001D8BB   495 0001:0001D8C1   496 0001:0001D8C5
   497 0001:0001D8CB   498 0001:0001D8D5   500 0001:0001D8DD   501 0001:0001D8EB
   502 0001:0001D902   503 0001:0001D908   506 0001:0001D911   507 0001:0001D918
   508 0001:0001D91E   498 0001:0001D922   511 0001:0001D92A   512 0001:0001D932

Line numbers for SQLiteTable3(System.Generics.Defaults.pas) segment .text

  1641 0001:0001D93C  1642 0001:0001D948  1643 0001:0001D964

Line numbers for SQLiteTable3(System.Generics.Defaults.pas) segment .text

  1646 0001:0001D968  1647 0001:0001D977  1648 0001:0001D997

Line numbers for SQLiteTable3(System.Generics.Collections.pas) segment .text

   575 0001:0001D99C   576 0001:0001D9AB   579 0001:0001D9DD   580 0001:0001D9F4
   582 0001:0001D9FA   583 0001:0001DA18

Line numbers for SQLiteTable3(System.Generics.Collections.pas) segment .text

   484 0001:0001DA20   485 0001:0001DA30   488 0001:0001DA62   489 0001:0001DA79
   491 0001:0001DA7F   492 0001:0001DA87   495 0001:0001DA8D   496 0001:0001DA91
   497 0001:0001DA97   498 0001:0001DAA1   500 0001:0001DAA9   501 0001:0001DAB7
   502 0001:0001DACE   503 0001:0001DAD4   506 0001:0001DADD   507 0001:0001DAE4
   508 0001:0001DAEA   498 0001:0001DAEE   511 0001:0001DAF6   512 0001:0001DAFE

Line numbers for SQLiteTable3(System.Generics.Defaults.pas) segment .text

  1497 0001:0001DB08  1498 0001:0001DB23  1499 0001:0001DB31

Line numbers for SQLiteTable3(System.Generics.Defaults.pas) segment .text

  1502 0001:0001DB50  1503 0001:0001DB60  1504 0001:0001DB74

Line numbers for SQLiteTable3(System.Generics.Collections.pas) segment .text

   533 0001:0001DB7C   534 0001:0001DB8C   537 0001:0001DBA6   538 0001:0001DBAC
   539 0001:0001DBB2   542 0001:0001DBC8   541 0001:0001DBCB   544 0001:0001DBE5
   543 0001:0001DBE8   545 0001:0001DC00   547 0001:0001DC08   549 0001:0001DC10
   550 0001:0001DC1C   551 0001:0001DC2E   553 0001:0001DC3A   554 0001:0001DC3D
   556 0001:0001DC40   557 0001:0001DC48   558 0001:0001DC50   559 0001:0001DC6A
   560 0001:0001DC70   561 0001:0001DC7C

Line numbers for SQLiteTable3(System.Generics.Defaults.pas) segment .text

  1641 0001:0001DC84  1642 0001:0001DC90  1643 0001:0001DCAC

Line numbers for SQLiteTable3(System.Generics.Defaults.pas) segment .text

  1646 0001:0001DCB0  1647 0001:0001DCBF  1648 0001:0001DCDF

Line numbers for SQLiteTable3(System.Generics.Collections.pas) segment .text

   575 0001:0001DCE4   576 0001:0001DCF3   579 0001:0001DD25   580 0001:0001DD3C
   582 0001:0001DD42   583 0001:0001DD60

Line numbers for SQLiteTable3(System.Generics.Collections.pas) segment .text

   484 0001:0001DD68   485 0001:0001DD78   488 0001:0001DDAA   489 0001:0001DDC1
   491 0001:0001DDC7   492 0001:0001DDCF   495 0001:0001DDD5   496 0001:0001DDD9
   497 0001:0001DDDF   498 0001:0001DDE9   500 0001:0001DDF1   501 0001:0001DDFF
   502 0001:0001DE16   503 0001:0001DE1C   506 0001:0001DE25   507 0001:0001DE2C
   508 0001:0001DE32   498 0001:0001DE36   511 0001:0001DE3E   512 0001:0001DE46

Line numbers for SQLiteTable3(System.Generics.Defaults.pas) segment .text

  1641 0001:0001DE50  1642 0001:0001DE5C  1643 0001:0001DE78

Line numbers for SQLiteTable3(System.Generics.Defaults.pas) segment .text

  1646 0001:0001DE7C  1647 0001:0001DE8B  1648 0001:0001DEAB

Line numbers for SQLiteTable3(System.Generics.Collections.pas) segment .text

   575 0001:0001DEB0   576 0001:0001DEBF   579 0001:0001DEF1   580 0001:0001DF08
   582 0001:0001DF0E   583 0001:0001DF2C

Line numbers for SQLiteTable3(System.Generics.Collections.pas) segment .text

   484 0001:0001DF34   485 0001:0001DF44   488 0001:0001DF76   489 0001:0001DF8D
   491 0001:0001DF93   492 0001:0001DF9B   495 0001:0001DFA1   496 0001:0001DFA5
   497 0001:0001DFAB   498 0001:0001DFB5   500 0001:0001DFBD   501 0001:0001DFCB
   502 0001:0001DFE2   503 0001:0001DFE8   506 0001:0001DFF1   507 0001:0001DFF8
   508 0001:0001DFFE   498 0001:0001E002   511 0001:0001E00A   512 0001:0001E012

Line numbers for SQLiteTable3(System.Generics.Defaults.pas) segment .text

  1641 0001:0001E01C  1642 0001:0001E028  1643 0001:0001E044

Line numbers for SQLiteTable3(System.Generics.Defaults.pas) segment .text

  1646 0001:0001E048  1647 0001:0001E057  1648 0001:0001E077

Line numbers for SQLiteTable3(System.Generics.Collections.pas) segment .text

   575 0001:0001E07C   576 0001:0001E08B   579 0001:0001E0BD   580 0001:0001E0D4
   582 0001:0001E0DA   583 0001:0001E0F8

Line numbers for SQLiteTable3(System.Generics.Collections.pas) segment .text

   484 0001:0001E100   485 0001:0001E110   488 0001:0001E142   489 0001:0001E159
   491 0001:0001E15F   492 0001:0001E167   495 0001:0001E16D   496 0001:0001E171
   497 0001:0001E177   498 0001:0001E181   500 0001:0001E189   501 0001:0001E197
   502 0001:0001E1AE   503 0001:0001E1B4   506 0001:0001E1BD   507 0001:0001E1C4
   508 0001:0001E1CA   498 0001:0001E1CE   511 0001:0001E1D6   512 0001:0001E1DE

Line numbers for SQLiteTable3(System.Generics.Defaults.pas) segment .text

  1497 0001:0001E1E8  1498 0001:0001E203  1499 0001:0001E211

Line numbers for SQLiteTable3(System.Generics.Defaults.pas) segment .text

  1502 0001:0001E230  1503 0001:0001E240  1504 0001:0001E254

Line numbers for SQLiteTable3(System.Generics.Collections.pas) segment .text

   533 0001:0001E25C   534 0001:0001E26C   537 0001:0001E286   538 0001:0001E28C
   539 0001:0001E292   542 0001:0001E2A8   541 0001:0001E2AB   544 0001:0001E2C5
   543 0001:0001E2C8   545 0001:0001E2E0   547 0001:0001E2E8   549 0001:0001E2F0
   550 0001:0001E2FC   551 0001:0001E30E   553 0001:0001E31A   554 0001:0001E31D
   556 0001:0001E320   557 0001:0001E328   558 0001:0001E330   559 0001:0001E34A
   560 0001:0001E350   561 0001:0001E35C

Line numbers for SQLiteTable3(System.Generics.Defaults.pas) segment .text

  1497 0001:0001E364  1498 0001:0001E37F  1499 0001:0001E38D

Line numbers for SQLiteTable3(System.Generics.Defaults.pas) segment .text

  1502 0001:0001E3AC  1503 0001:0001E3BC  1504 0001:0001E3D0

Line numbers for SQLiteTable3(System.Generics.Collections.pas) segment .text

   533 0001:0001E3D8   534 0001:0001E3E8   537 0001:0001E402   538 0001:0001E408
   539 0001:0001E40E   542 0001:0001E424   541 0001:0001E427   544 0001:0001E441
   543 0001:0001E444   545 0001:0001E45C   547 0001:0001E464   549 0001:0001E46C
   550 0001:0001E478   551 0001:0001E48A   553 0001:0001E496   554 0001:0001E499
   556 0001:0001E49C   557 0001:0001E4A4   558 0001:0001E4AC   559 0001:0001E4C6
   560 0001:0001E4CC   561 0001:0001E4D8

Line numbers for SQLiteTable3(System.Generics.Defaults.pas) segment .text

  1497 0001:0001E4E0  1498 0001:0001E4FB  1499 0001:0001E509

Line numbers for SQLiteTable3(System.Generics.Defaults.pas) segment .text

  1502 0001:0001E528  1503 0001:0001E538  1504 0001:0001E54C

Line numbers for SQLiteTable3(System.Generics.Collections.pas) segment .text

   533 0001:0001E554   534 0001:0001E58E   537 0001:0001E5A8   538 0001:0001E5AE
   539 0001:0001E5B4   542 0001:0001E5D5   541 0001:0001E5D8   544 0001:0001E5F2
   543 0001:0001E5F5   545 0001:0001E60D   547 0001:0001E615   549 0001:0001E61D
   550 0001:0001E634   551 0001:0001E651   553 0001:0001E668   554 0001:0001E66B
   556 0001:0001E66E   557 0001:0001E67A   558 0001:0001E682   559 0001:0001E69C
   560 0001:0001E6A2   561 0001:0001E6AE

Line numbers for SQLiteTable3(System.Generics.Defaults.pas) segment .text

  1497 0001:0001E6E0  1498 0001:0001E6FB  1499 0001:0001E709

Line numbers for SQLiteTable3(System.Generics.Defaults.pas) segment .text

  1502 0001:0001E728  1503 0001:0001E738  1504 0001:0001E74C

Line numbers for SQLiteTable3(System.Generics.Collections.pas) segment .text

   533 0001:0001E754   534 0001:0001E77A   537 0001:0001E794   538 0001:0001E79A
   539 0001:0001E7A0   542 0001:0001E7BB   541 0001:0001E7BE   544 0001:0001E7D8
   543 0001:0001E7DB   545 0001:0001E7F3   547 0001:0001E7FB   549 0001:0001E803
   550 0001:0001E814   551 0001:0001E82B   553 0001:0001E83C   554 0001:0001E83F
   556 0001:0001E842   557 0001:0001E84E   558 0001:0001E856   559 0001:0001E870
   560 0001:0001E876   561 0001:0001E882

Line numbers for SQLiteTable3(System.Generics.Defaults.pas) segment .text

  1497 0001:0001E8AC  1498 0001:0001E8C7  1499 0001:0001E8D5

Line numbers for SQLiteTable3(System.Generics.Defaults.pas) segment .text

  1502 0001:0001E8F4  1503 0001:0001E904  1504 0001:0001E918

Line numbers for SQLiteTable3(System.Generics.Collections.pas) segment .text

   533 0001:0001E920   534 0001:0001E930   537 0001:0001E94A   538 0001:0001E950
   539 0001:0001E956   542 0001:0001E96C   541 0001:0001E96F   544 0001:0001E989
   543 0001:0001E98C   545 0001:0001E9A4   547 0001:0001E9AC   549 0001:0001E9B4
   550 0001:0001E9C0   551 0001:0001E9D2   553 0001:0001E9DE   554 0001:0001E9E1
   556 0001:0001E9E4   557 0001:0001E9EC   558 0001:0001E9F4   559 0001:0001EA0E
   560 0001:0001EA14   561 0001:0001EA20

Line numbers for SQLite3Dataset(SQLite3Dataset.pas) segment .text

   120 0001:00024E58   121 0001:00024E9B   123 0001:00024EB5   124 0001:00024ECE
   127 0001:00024ED2   130 0001:00024EDE   134 0001:00024EFC   137 0001:00024F20
   138 0001:00024F2E   141 0001:00024F38   142 0001:00024F4D   144 0001:00024F53
   146 0001:00024F79   148 0001:00024F7F   153 0001:00024FBB   155 0001:00024FC1
   156 0001:00024FC7   160 0001:00024FD4   162 0001:00024FFC   121 0001:00024FFF
   163 0001:00025008   166 0001:0002510C   167 0001:0002511B   168 0001:00025129
   170 0001:0002512F   171 0001:0002513D   172 0001:0002514A   173 0001:00025158
   175 0001:00025163   199 0001:00025168   200 0001:00025199   203 0001:0002519D
   206 0001:000251B1   207 0001:000251BA   211 0001:000251CB   212 0001:000251D4
   216 0001:000251E5   217 0001:000251EE   225 0001:000251FD   227 0001:00025211
   229 0001:00025220   230 0001:00025226   232 0001:00025241   233 0001:0002525D
   225 0001:00025260   235 0001:00025265   236 0001:00025273   237 0001:0002527E
   239 0001:00025284   241 0001:00025293   243 0001:000252AA   245 0001:000252B6
   247 0001:000252C1   249 0001:000252E8   258 0001:00025305   261 0001:0002530E
   264 0001:00025350   265 0001:00025353   266 0001:00025370   267 0001:0002538D
   268 0001:000253AA   270 0001:000253AC   271 0001:000253DA   272 0001:000253DF
   274 0001:000253E4   275 0001:000253F3   277 0001:000253FE   280 0001:00025430
   282 0001:0002544A   284 0001:00025458   285 0001:00025464   286 0001:0002546C
   288 0001:0002547A   289 0001:000254B0   290 0001:000254E6   294 0001:0002551C
   295 0001:0002552B   296 0001:0002553A   298 0001:00025549   299 0001:0002554F
   300 0001:0002555D   301 0001:0002556B   305 0001:00025572   307 0001:00025580
   311 0001:0002558A   312 0001:00025598   314 0001:0002559E   315 0001:000255A6
   318 0001:000255A8   319 0001:000255B6   321 0001:000255BB   323 0001:000255BE
   309 0001:000255C6   326 0001:000255D2   328 0001:000255E0   332 0001:000255EA
   333 0001:000255F8   335 0001:000255FE   336 0001:00025606   339 0001:00025608
   340 0001:00025616   342 0001:0002561B   344 0001:0002561E   330 0001:00025626
   347 0001:00025632   350 0001:00025647   351 0001:00025655   352 0001:00025663
   353 0001:00025671   354 0001:00025679   355 0001:00025681   357 0001:00025689
   359 0001:0002568F   360 0001:0002569D   362 0001:000256AD   365 0001:000256BB
   367 0001:000256C6   368 0001:000256D4   369 0001:000256E6   372 0001:000256F3
   376 0001:00025710   377 0001:00025715   379 0001:00025728   382 0001:0002576C
   383 0001:00025775   384 0001:00025784   387 0001:0002578C   388 0001:000257A7
   389 0001:000257B4   390 0001:000257BF   391 0001:000257CA   392 0001:000257D5
   393 0001:000257E0   394 0001:000257EB   395 0001:000257F6   396 0001:00025803
   397 0001:0002580D   400 0001:0002582C   401 0001:0002583D   402 0001:00025848
   403 0001:00025853   404 0001:0002585E   405 0001:0002586B   406 0001:00025879
   412 0001:0002588C   413 0001:000258B4   414 0001:000258B9   415 0001:000258C1
   416 0001:000258CB   417 0001:000258D9   419 0001:000258F5   420 0001:0002591D
   417 0001:00025920   422 0001:00025925   424 0001:00025930   425 0001:0002593B
   427 0001:00025953   428 0001:00025969   432 0001:00025974   436 0001:00025999
   440 0001:000259B9   425 0001:000259BC   442 0001:000259C1   445 0001:000259D6
   446 0001:000259DE   448 0001:000259F0   453 0001:00025A14   454 0001:00025A3C
   457 0001:00025A52   458 0001:00025A5A   461 0001:00025A6A   463 0001:00025A72
   465 0001:00025A8A   466 0001:00025AB8   463 0001:00025ABB   468 0001:00025AC0
   470 0001:00025ACB   459 0001:00025AD3   473 0001:00025ADF   476 0001:00025AF4
   478 0001:00025B04   487 0001:00025B28   488 0001:00025B56   489 0001:00025B86
   490 0001:00025B95   491 0001:00025BA3   493 0001:00025BB1   495 0001:00025BC5
   497 0001:00025BD4   498 0001:00025BDA   500 0001:00025BF5   501 0001:00025C11
   493 0001:00025C14   503 0001:00025C19   504 0001:00025C24   505 0001:00025C32
   507 0001:00025C3E   508 0001:00025C46   510 0001:00025C5E   511 0001:00025C94
   508 0001:00025C97   513 0001:00025C9C   518 0001:00025CA9   521 0001:00025CBE
   525 0001:00025CDB   526 0001:00025CE3   528 0001:00025CF3   531 0001:00025D38
   532 0001:00025D3F   534 0001:00025D4A   537 0001:00025D57   538 0001:00025D64
   540 0001:00025D6F   542 0001:00025D77   543 0001:00025D82   550 0001:00025D88
   551 0001:00025DA7   553 0001:00025DD5   554 0001:00025DDA   555 0001:00025DDF
   557 0001:00025DE5   558 0001:00025E12   562 0001:00025E22   567 0001:00025E2A
   569 0001:00025E35   571 0001:00025E3B   572 0001:00025E46   573 0001:00025E50
   574 0001:00025E5E   576 0001:00025E76   581 0001:00025E89   582 0001:00025E8F
   584 0001:00025E97   585 0001:00025E9D   587 0001:00025EA5   592 0001:00025EC8
   593 0001:00025EE3   594 0001:00025EF0   595 0001:00025F02   596 0001:00025F14
   597 0001:00025F26   598 0001:00025F38   601 0001:00025F58   602 0001:00025F69
   603 0001:00025F74   604 0001:00025F7F   605 0001:00025F8A   606 0001:00025F95
   607 0001:00025FA3

Line numbers for SQLite3Dataset(SQLite3Dataset.pas) segment .itext

   618 0002:0000017C

Line numbers for SQLite3Dataset(SQLite3Dataset.pas) segment .text

   612 0001:00025FF8   613 0001:00026007   614 0001:00026012   615 0001:0002601B
   616 0001:00026024

Line numbers for SQLite3Dataset(System.Generics.Collections.pas) segment .text

  2076 0001:00026030  2078 0001:0002605B  2079 0001:00026075  2080 0001:0002607A
  2082 0001:0002609F  2083 0001:000260BB  2080 0001:000260BE  2084 0001:000260D7
  2085 0001:000260F4

Line numbers for SQLite3Dataset(System.Generics.Collections.pas) segment .text

  2054 0001:0002611C  2055 0001:00026125  2056 0001:0002612F

Line numbers for SQLite3Dataset(System.Generics.Collections.pas) segment .text

  2062 0001:00026138  2063 0001:00026160  2064 0001:0002616F  2065 0001:0002617D
  2066 0001:000261A2  2065 0001:000261AD  2066 0001:000261C6  2067 0001:000261E3
  2069 0001:000261FB  2071 0001:0002620B

Line numbers for SQLite3Dataset(System.Generics.Collections.pas) segment .text

  2047 0001:00026234  2048 0001:0002623D  2049 0001:00026248

Line numbers for SQLite3Dataset(System.Generics.Collections.pas) segment .text

   588 0001:00026250   589 0001:00026259   590 0001:00026267

Line numbers for SQLite3Dataset(System.Generics.Collections.pas) segment .text

   593 0001:00026270   594 0001:0002627C   595 0001:00026287   596 0001:00026292
   597 0001:000262AF

Line numbers for SQLite3Dataset(System.Generics.Collections.pas) segment .text

   600 0001:000262B4   601 0001:000262C0   602 0001:000262C6   603 0001:000262DD
   604 0001:000262EA   605 0001:000262F5   606 0001:00026300   607 0001:00026314
   608 0001:0002631D

Line numbers for SQLite3Dataset(System.Generics.Collections.pas) segment .text

   611 0001:00026324   612 0001:00026333   613 0001:00026344   614 0001:0002635B
   615 0001:00026378

Line numbers for SQLite3Dataset(System.Generics.Collections.pas) segment .text

   620 0001:0002637C   621 0001:000263A8   622 0001:000263B9   624 0001:000263D0
   625 0001:000263ED   627 0001:0002640A   628 0001:00026417   629 0001:00026424

Line numbers for SQLite3Dataset(System.Generics.Collections.pas) segment .text

   634 0001:0002644C   635 0001:00026458   636 0001:00026466   637 0001:0002646C
   640 0001:00026474   641 0001:0002647C   642 0001:00026482   643 0001:00026487
   644 0001:0002648F   645 0001:0002649A

Line numbers for SQLite3Dataset(System.Generics.Collections.pas) segment .text

   648 0001:000264A0   649 0001:000264AC   650 0001:000264BC   651 0001:000264C9
   652 0001:000264CF   653 0001:000264D4

Line numbers for SQLite3Dataset(System.Generics.Collections.pas) segment .text

   826 0001:000264D8   827 0001:00026505   828 0001:00026516   829 0001:0002652D
   830 0001:0002654A   831 0001:0002656B   832 0001:00026571   834 0001:0002657C
   835 0001:000265AF   837 0001:000265CD   838 0001:000265DB

Line numbers for SQLite3Dataset(System.Generics.Collections.pas) segment .text

   688 0001:00026604   689 0001:0002660D   690 0001:00026618

Line numbers for SQLite3Dataset(System.Generics.Collections.pas) segment .text

   656 0001:00026620   657 0001:00026630   658 0001:0002663A   659 0001:0002664D

Line numbers for SQLite3Dataset(System.Generics.Defaults.pas) segment .text

    38 0001:00027A9A

Line numbers for SQLite3Dataset(System.Generics.Collections.pas) segment .text

   662 0001:00026654   663 0001:0002667F   664 0001:00026699

Line numbers for SQLite3Dataset(System.Generics.Collections.pas) segment .text

   667 0001:000266D8   668 0001:00026707   669 0001:00026711   670 0001:0002671F
   671 0001:00026728   672 0001:00026743

Line numbers for SQLite3Dataset(System.Generics.Collections.pas) segment .text

   675 0001:00026780   676 0001:000267AF   677 0001:000267B9   678 0001:000267D4
   679 0001:000267E1

Line numbers for SQLite3Dataset(System.Generics.Collections.pas) segment .text

   682 0001:00026820   683 0001:00026831   684 0001:0002683B   685 0001:00026849

Line numbers for SQLite3Dataset(System.Generics.Collections.pas) segment .text

   693 0001:0002685C   694 0001:00026869   695 0001:00026878   696 0001:00026881
   697 0001:000268A1   698 0001:000268A7   699 0001:000268B4

Line numbers for SQLite3Dataset(System.Generics.Collections.pas) segment .text

   702 0001:000268BC   703 0001:000268CB   704 0001:000268E0

Line numbers for SQLite3Dataset(System.Generics.Collections.pas) segment .text

   707 0001:000268E4   708 0001:000268F0   709 0001:00026901

Line numbers for SQLite3Dataset(System.Generics.Collections.pas) segment .text

   712 0001:00026908   713 0001:00026914   714 0001:00026925

Line numbers for SQLite3Dataset(System.Generics.Collections.pas) segment .text

   728 0001:0002692C   729 0001:0002693C   730 0001:0002694D   732 0001:00026964
   733 0001:00026973   735 0001:0002697E   736 0001:000269B1   738 0001:000269CC
   739 0001:000269E9   740 0001:000269EF   741 0001:000269FC

Line numbers for SQLite3Dataset(System.Generics.Collections.pas) segment .text

   746 0001:00026A04   747 0001:00026A14   748 0001:00026A25   750 0001:00026A3C
   751 0001:00026A4E   753 0001:00026A59   754 0001:00026A8F   757 0001:00026AAF
   758 0001:00026AC3   757 0001:00026AEF   760 0001:00026AF4   762 0001:00026AFE
   763 0001:00026B12   762 0001:00026B2B   764 0001:00026B30

Line numbers for SQLite3Dataset(System.Generics.Collections.pas) segment .text

   769 0001:00026B38   770 0001:00026B69   772 0001:00026B81   773 0001:00026B8F
   770 0001:00026B92   774 0001:00026B9E   775 0001:00026BA6

Line numbers for SQLite3Dataset(System.Generics.Collections.pas) segment .text

   780 0001:00026BD8   781 0001:00026C03   783 0001:00026C28   784 0001:00026C36
   781 0001:00026C39   785 0001:00026C52   786 0001:00026C6F

Line numbers for SQLite3Dataset(System.Generics.Collections.pas) segment .text

   817 0001:00026C98   818 0001:00026CA4   819 0001:00026CB2   820 0001:00026CB8
   821 0001:00026CC3

Line numbers for SQLite3Dataset(System.Generics.Collections.pas) segment .text

   841 0001:00026CCC   842 0001:00026CD8   843 0001:00026CE5

Line numbers for SQLite3Dataset(System.Generics.Collections.pas) segment .text

   849 0001:00026CEC   850 0001:00026D0F   852 0001:00026D33   853 0001:00026D4A
   856 0001:00026D54   857 0001:00026D6E   859 0001:00026D8E   860 0001:00026D9F
   862 0001:00026DA5   863 0001:00026DD4   867 0001:00026DFB   869 0001:00026E1A
   871 0001:00026E23   872 0001:00026E3B   871 0001:00026E54   873 0001:00026E59

Line numbers for SQLite3Dataset(System.Generics.Collections.pas) segment .text

   800 0001:00026E84   801 0001:00026E94   802 0001:00026EA2   803 0001:00026EA8
   806 0001:00026EBF   807 0001:00026EDC   809 0001:00026EE9

Line numbers for SQLite3Dataset(System.Generics.Collections.pas) segment .text

   791 0001:00026EF0   792 0001:00026F1B   793 0001:00026F38   794 0001:00026F61
   795 0001:00026F7E

Line numbers for SQLite3Dataset(System.Generics.Collections.pas) segment .text

   914 0001:00026FA8   915 0001:00026FD4   917 0001:00026FE0   918 0001:00026FF1
   920 0001:00027008   921 0001:00027025   922 0001:00027046   923 0001:0002704E
   925 0001:00027080   927 0001:000270B0   928 0001:000270CB   929 0001:000270E8

Line numbers for SQLite3Dataset(System.Generics.Collections.pas) segment .text

   812 0001:00027110   813 0001:0002711C   814 0001:00027129

Line numbers for SQLite3Dataset(System.Generics.Collections.pas) segment .text

   897 0001:00027130   898 0001:0002713C   899 0001:0002714E

Line numbers for SQLite3Dataset(System.Generics.Collections.pas) segment .text

   876 0001:00027154   877 0001:0002715B   878 0001:00027165   879 0001:0002716F

Line numbers for SQLite3Dataset(System.Generics.Collections.pas) segment .text

   882 0001:00027174   883 0001:00027180   884 0001:00027191

Line numbers for SQLite3Dataset(System.Generics.Collections.pas) segment .text

   889 0001:00027198   890 0001:000271A5   891 0001:000271BB   892 0001:000271DC
   890 0001:000271E7   893 0001:000271EC   894 0001:000271F3

Line numbers for SQLite3Dataset(System.Generics.Collections.pas) segment .text

   904 0001:000271FC   905 0001:00027209   906 0001:00027218   907 0001:00027239
   905 0001:00027244   908 0001:0002724A   909 0001:00027251

Line numbers for SQLite3Dataset(System.Generics.Collections.pas) segment .text

   935 0001:0002725C   936 0001:00027281   937 0001:00027286   938 0001:00027290
   940 0001:00027298   941 0001:000272B5   942 0001:000272DE   943 0001:000272FB
   944 0001:000272FE   938 0001:00027301   946 0001:00027309

Line numbers for SQLite3Dataset(System.Generics.Collections.pas) segment .text

   949 0001:00027330   950 0001:00027339   951 0001:00027366

Line numbers for SQLite3Dataset(System.Generics.Collections.pas) segment .text

   954 0001:0002736C   955 0001:00027378   956 0001:000273A2

Line numbers for SQLite3Dataset(System.Generics.Collections.pas) segment .text

   717 0001:000273A8   718 0001:000273B7   719 0001:000273EF

Line numbers for SQLite3Dataset(System.Generics.Collections.pas) segment .text

   723 0001:000273F8   724 0001:00027407   725 0001:0002743C

Line numbers for SQLite3Dataset(System.Generics.Collections.pas) segment .text

   968 0001:00027448   969 0001:0002744F   970 0001:0002745D

Line numbers for SQLite3Dataset(System.Generics.Collections.pas) segment .text

   961 0001:00027460   962 0001:00027485   963 0001:000274A2   964 0001:000274B8
   963 0001:000274E5   965 0001:000274EA

Line numbers for SQLite3Dataset(System.Generics.Collections.pas) segment .text

   973 0001:00027514   974 0001:0002751D   975 0001:0002752F

Line numbers for SQLite3Dataset(System.Generics.Collections.pas) segment .text

   997 0001:00027538   998 0001:00027544   999 0001:00027558

Line numbers for SQLite3Dataset(System.Generics.Collections.pas) segment .text

   987 0001:0002755C   988 0001:00027568   989 0001:00027573

Line numbers for SQLite3Dataset(System.Generics.Collections.pas) segment .text

   992 0001:00027578   993 0001:00027581   994 0001:0002758C

Line numbers for SQLite3Dataset(System.Generics.Collections.pas) segment .text

   980 0001:00027594   981 0001:000275AF   982 0001:000275B9   983 0001:000275C2
   984 0001:000275CC

Line numbers for SQLite3Dataset(System.Generics.Collections.pas) segment .text

  1002 0001:000275EC  1003 0001:000275F5  1004 0001:00027606  1005 0001:0002760C
  1006 0001:00027612  1007 0001:00027625

Line numbers for SQLite3Dataset(System.Generics.Defaults.pas) segment .text

  1641 0001:0002762C  1642 0001:00027638  1643 0001:00027654

Line numbers for SQLite3Dataset(System.Generics.Defaults.pas) segment .text

  1646 0001:00027658  1647 0001:00027667  1648 0001:00027687

Line numbers for SQLite3Dataset(System.Generics.Collections.pas) segment .text

   575 0001:0002768C   576 0001:0002769B   579 0001:000276CD   580 0001:000276E4
   582 0001:000276EA   583 0001:00027708

Line numbers for SQLite3Dataset(System.Generics.Collections.pas) segment .text

   484 0001:00027710   485 0001:00027720   488 0001:00027752   489 0001:00027769
   491 0001:0002776F   492 0001:00027777   495 0001:0002777D   496 0001:00027781
   497 0001:00027787   498 0001:00027791   500 0001:00027799   501 0001:000277A7
   502 0001:000277C1   503 0001:000277C7   506 0001:000277D0   507 0001:000277D7
   508 0001:000277DD   498 0001:000277E1   511 0001:000277E9   512 0001:000277F1

Line numbers for SQLite3Dataset(System.Generics.Defaults.pas) segment .text

  1497 0001:000277FC  1498 0001:00027817  1499 0001:00027825

Line numbers for SQLite3Dataset(System.Generics.Defaults.pas) segment .text

  1502 0001:00027844  1503 0001:00027854  1504 0001:00027868

Line numbers for SQLite3Dataset(System.Generics.Collections.pas) segment .text

   533 0001:00027870   534 0001:000278AA   537 0001:000278C4   538 0001:000278CA
   539 0001:000278D0   542 0001:000278F4   541 0001:000278F7   544 0001:00027914
   543 0001:00027917   545 0001:00027932   547 0001:0002793A   549 0001:00027942
   550 0001:0002795C   551 0001:0002797F   553 0001:00027999   554 0001:0002799C
   556 0001:0002799F   557 0001:000279AB   558 0001:000279B3   559 0001:000279CD
   560 0001:000279D3   561 0001:000279DF

Line numbers for SQLite3Register(SQLite3Register.pas) segment .text

    13 0001:00027F88    14 0001:00027F8E    16 0001:00027FB8

Line numbers for SQLite3Register(SQLite3Register.pas) segment .itext

    18 0002:00000184

Line numbers for .pck_SQLite3(pck_SQLite3.dpk) segment .itext

    38 0002:0000018C

Bound resource files

pck_SQLite3.res
pck_SQLite3.drf


Program entry point at 0002:0000018C
